TN:
SF:/root/project/containers/list/s21_list.h
FNF:0
FNH:0
LF:0
LH:0
end_of_record
TN:
SF:/root/project/containers/list/s21_list_access.tpp
FN:14,17,_ZN3s214listI16ExceptionTriggerE5frontEv
FN:14,17,_ZN3s214listISt10unique_ptrIiSt14default_deleteIiEEE5frontEv
FN:14,17,_ZN3s214listIZN25QueueTest_CustomType_Test8TestBodyEvE10TestStructE5frontEv
FN:14,17,_ZN3s214listIiE5frontEv
FN:25,28,_ZNK3s214listIiE5frontEv
FN:36,39,_ZN3s214listISt10unique_ptrIiSt14default_deleteIiEEE4backEv
FN:36,39,_ZN3s214listIZN25QueueTest_CustomType_Test8TestBodyEvE10TestStructE4backEv
FN:36,39,_ZN3s214listIiE4backEv
FN:47,50,_ZNK3s214listIiE4backEv
FNDA:1,_ZN3s214listI16ExceptionTriggerE5frontEv
FNDA:2,_ZN3s214listISt10unique_ptrIiSt14default_deleteIiEEE5frontEv
FNDA:1,_ZN3s214listIZN25QueueTest_CustomType_Test8TestBodyEvE10TestStructE5frontEv
FNDA:23,_ZN3s214listIiE5frontEv
FNDA:3,_ZNK3s214listIiE5frontEv
FNDA:1,_ZN3s214listISt10unique_ptrIiSt14default_deleteIiEEE4backEv
FNDA:1,_ZN3s214listIZN25QueueTest_CustomType_Test8TestBodyEvE10TestStructE4backEv
FNDA:28,_ZN3s214listIiE4backEv
FNDA:3,_ZNK3s214listIiE4backEv
FNF:9
FNH:9
DA:14,27
DA:15,27
DA:16,27
DA:25,3
DA:26,3
DA:27,3
DA:36,30
DA:37,30
DA:38,30
DA:47,3
DA:48,3
DA:49,3
LF:12
LH:12
end_of_record
TN:
SF:/root/project/containers/list/s21_list_algorithms.tpp
FN:118,144,_ZN3s214listIiE6spliceENS1_17ListConstIteratorERS1_
FN:14,26,_ZN3s214listIiE7reverseEv
FN:152,164,_ZN3s214listIiE9mergeSortEPNS1_8ListNodeE
FN:172,186,_ZN3s214listIiE9getMiddleEPNS1_8ListNodeE
FN:195,210,_ZN3s214listIiE5mergeEPNS1_8ListNodeES3_
FN:32,50,_ZN3s214listIiE6uniqueEv
FN:56,63,_ZN3s214listIiE4sortEv
FN:70,110,_ZN3s214listIiE5mergeERS1_
FNDA:8,_ZN3s214listIiE6spliceENS1_17ListConstIteratorERS1_
FNDA:1,_ZN3s214listIiE7reverseEv
FNDA:97,_ZN3s214listIiE9mergeSortEPNS1_8ListNodeE
FNDA:41,_ZN3s214listIiE9getMiddleEPNS1_8ListNodeE
FNDA:109,_ZN3s214listIiE5mergeEPNS1_8ListNodeES3_
FNDA:2,_ZN3s214listIiE6uniqueEv
FNDA:29,_ZN3s214listIiE4sortEv
FNDA:17,_ZN3s214listIiE5mergeERS1_
FNF:8
FNH:8
DA:14,1
DA:15,1
DA:16,1
DA:17,6
DA:18,5
DA:19,5
DA:20,5
DA:21,5
DA:23,1
DA:24,1
DA:26,1
DA:32,2
DA:33,2
DA:34,2
DA:35,13
DA:36,11
DA:37,7
DA:38,7
DA:39,7
DA:40,5
DA:42,2
DA:44,7
DA:45,7
DA:47,4
DA:56,29
DA:57,29
DA:58,15
DA:59,15
DA:60,56
DA:61,41
DA:70,17
DA:71,17
DA:72,17
DA:73,13
DA:74,13
DA:76,13
DA:77,13
DA:79,13
DA:80,13
DA:82,45
DA:83,32
DA:84,20
DA:85,20
DA:86,20
DA:88,12
DA:89,12
DA:90,12
DA:92,32
DA:95,13
DA:96,13
DA:97,13
DA:98,13
DA:101,13
DA:102,13
DA:104,13
DA:105,13
DA:106,13
DA:107,13
DA:110,17
DA:118,8
DA:119,8
DA:120,6
DA:121,6
DA:122,2
DA:123,1
DA:124,1
DA:126,1
DA:128,2
DA:129,2
DA:131,4
DA:132,2
DA:133,2
DA:135,2
DA:137,4
DA:139,6
DA:140,6
DA:141,6
DA:142,6
DA:144,8
DA:152,97
DA:153,97
DA:155,41
DA:156,41
DA:158,41
DA:160,41
DA:161,41
DA:163,41
DA:172,41
DA:173,41
DA:175,41
DA:176,41
DA:178,132
DA:179,50
DA:180,50
DA:181,28
DA:182,28
DA:185,41
DA:195,109
DA:196,109
DA:197,71
DA:199,68
DA:200,64
DA:201,64
DA:202,64
DA:203,64
DA:205,4
DA:206,4
DA:207,4
DA:208,4
LF:109
LH:109
end_of_record
TN:
SF:/root/project/containers/list/s21_list_capacity.tpp
FN:13,15,_ZNK3s214listI16ExceptionTriggerE5emptyEv
FN:13,15,_ZNK3s214listISt10unique_ptrIiSt14default_deleteIiEEE5emptyEv
FN:13,15,_ZNK3s214listIZN25QueueTest_CustomType_Test8TestBodyEvE10TestStructE5emptyEv
FN:13,15,_ZNK3s214listIiE5emptyEv
FN:22,24,_ZNK3s214listI16ExceptionTriggerE4sizeEv
FN:22,24,_ZNK3s214listIZN25QueueTest_CustomType_Test8TestBodyEvE10TestStructE4sizeEv
FN:22,24,_ZNK3s214listIiE4sizeEv
FN:31,33,_ZNK3s214listIiE8max_sizeEv
FNDA:2,_ZNK3s214listI16ExceptionTriggerE5emptyEv
FNDA:3,_ZNK3s214listISt10unique_ptrIiSt14default_deleteIiEEE5emptyEv
FNDA:2,_ZNK3s214listIZN25QueueTest_CustomType_Test8TestBodyEvE10TestStructE5emptyEv
FNDA:78,_ZNK3s214listIiE5emptyEv
FNDA:2,_ZNK3s214listI16ExceptionTriggerE4sizeEv
FNDA:1,_ZNK3s214listIZN25QueueTest_CustomType_Test8TestBodyEvE10TestStructE4sizeEv
FNDA:65,_ZNK3s214listIiE4sizeEv
FNDA:1,_ZNK3s214listIiE8max_sizeEv
FNF:8
FNH:8
DA:13,85
DA:14,85
DA:22,68
DA:23,68
DA:31,1
DA:32,1
LF:6
LH:6
end_of_record
TN:
SF:/root/project/containers/list/s21_list_constructors.tpp
FN:14,14,_ZN3s214listI16ExceptionTriggerEC2Ev
FN:14,14,_ZN3s214listISt10unique_ptrIiSt14default_deleteIiEEEC2Ev
FN:14,14,_ZN3s214listIZN25QueueTest_CustomType_Test8TestBodyEvE10TestStructEC2Ev
FN:14,14,_ZN3s214listIiEC2Ev
FN:23,27,_ZN3s214listIiEC2ERKS1_
FN:36,41,_ZN3s214listIiEC2EOS1_
FN:50,59,_ZN3s214listI16ExceptionTriggerEC2ESt16initializer_listIS1_E
FN:50,59,_ZN3s214listIiEC2ESt16initializer_listIiE
FN:70,74,_ZN3s214listIiEC2EmRKi
FN:82,84,_ZN3s214listI16ExceptionTriggerED2Ev
FN:82,84,_ZN3s214listISt10unique_ptrIiSt14default_deleteIiEEED2Ev
FN:82,84,_ZN3s214listIZN25QueueTest_CustomType_Test8TestBodyEvE10TestStructED2Ev
FN:82,84,_ZN3s214listIiED2Ev
FNDA:6,_ZN3s214listI16ExceptionTriggerEC2Ev
FNDA:1,_ZN3s214listISt10unique_ptrIiSt14default_deleteIiEEEC2Ev
FNDA:1,_ZN3s214listIZN25QueueTest_CustomType_Test8TestBodyEvE10TestStructEC2Ev
FNDA:445,_ZN3s214listIiEC2Ev
FNDA:5,_ZN3s214listIiEC2ERKS1_
FNDA:4,_ZN3s214listIiEC2EOS1_
FNDA:1,_ZN3s214listI16ExceptionTriggerEC2ESt16initializer_listIS1_E
FNDA:227,_ZN3s214listIiEC2ESt16initializer_listIiE
FNDA:1,_ZN3s214listIiEC2EmRKi
FNDA:6,_ZN3s214listI16ExceptionTriggerED2Ev
FNDA:1,_ZN3s214listISt10unique_ptrIiSt14default_deleteIiEEED2Ev
FNDA:1,_ZN3s214listIZN25QueueTest_CustomType_Test8TestBodyEvE10TestStructED2Ev
FNDA:449,_ZN3s214listIiED2Ev
FNF:13
FNH:13
DA:14,453
DA:23,5
DA:24,26
DA:25,16
DA:27,5
DA:36,4
DA:37,4
DA:38,4
DA:39,4
DA:40,4
DA:41,4
DA:50,228
DA:52,1103
DA:53,876
DA:55,2
DA:56,1
DA:57,1
DA:59,228
DA:70,1
DA:71,6
DA:72,5
DA:74,1
DA:82,457
DA:83,457
DA:84,457
LF:25
LH:25
end_of_record
TN:
SF:/root/project/containers/list/s21_list_insert_many.tpp
FN:17,29,_ZN3s214listIiE11insert_manyIJiEEENS1_12ListIteratorENS1_17ListConstIteratorEDpOT_
FN:37,41,_ZN3s214listIiE16insert_many_backIJiiEEEvDpOT_
FN:49,53,_ZN3s214listIiE17insert_many_frontIJEEEvDpOT_
FN:49,53,_ZN3s214listIiE17insert_many_frontIJiiEEEvDpOT_
FNDA:3,_ZN3s214listIiE11insert_manyIJiEEENS1_12ListIteratorENS1_17ListConstIteratorEDpOT_
FNDA:2,_ZN3s214listIiE16insert_many_backIJiiEEEvDpOT_
FNDA:1,_ZN3s214listIiE17insert_many_frontIJEEEvDpOT_
FNDA:1,_ZN3s214listIiE17insert_many_frontIJiiEEEvDpOT_
FNF:4
FNH:4
DA:17,3
DA:19,3
DA:20,1
DA:22,2
DA:23,2
DA:24,2
DA:25,2
DA:26,2
DA:27,2
DA:28,2
DA:29,2
DA:37,2
DA:38,2
DA:39,2
DA:40,2
DA:41,2
DA:49,2
DA:50,2
DA:51,1
DA:52,2
DA:53,2
LF:21
LH:21
end_of_record
TN:
SF:/root/project/containers/list/s21_list_iterators.tpp
FN:104,104,_ZN3s214listIiE17ListConstIteratorC2EPKNS1_8ListNodeE
FN:111,112,_ZN3s214listIiE17ListConstIteratorC2ERKNS1_12ListIteratorE
FN:120,122,_ZNK3s214listIiE17ListConstIteratordeEv
FN:129,132,_ZN3s214listIiE17ListConstIteratorppEv
FN:13,13,_ZN3s214listI16ExceptionTriggerE12ListIteratorC2EPNS2_8ListNodeE
FN:13,13,_ZN3s214listIiE12ListIteratorC2EPNS1_8ListNodeE
FN:152,159,_ZN3s214listIiE17ListConstIteratormmEv
FN:178,181,_ZNK3s214listIiE17ListConstIteratorneERKS2_
FN:189,196,_ZNK3s214listIiE17ListConstIterator8is_validERKS1_
FN:20,22,_ZN3s214listIiE12ListIteratordeEv
FN:203,205,_ZN3s214listI16ExceptionTriggerE5beginEv
FN:203,205,_ZN3s214listIiE5beginEv
FN:212,214,_ZN3s214listI16ExceptionTriggerE3endEv
FN:212,214,_ZN3s214listIiE3endEv
FN:221,223,_ZNK3s214listIiE5beginEv
FN:231,233,_ZNK3s214listIiE3endEv
FN:240,242,_ZNK3s214listIiE6cbeginEv
FN:250,252,_ZNK3s214listIiE4cendEv
FN:29,32,_ZN3s214listIiE12ListIteratorppEv
FN:39,43,_ZN3s214listIiE12ListIteratorppEi
FN:51,58,_ZN3s214listIiE12ListIteratormmEv
FN:66,69,_ZNK3s214listI16ExceptionTriggerE12ListIteratoreqERKS3_
FN:77,80,_ZNK3s214listIiE12ListIteratorneERKS2_
FN:88,97,_ZNK3s214listIiE12ListIterator8is_validERKS1_
FNDA:21,_ZN3s214listIiE17ListConstIteratorC2EPKNS1_8ListNodeE
FNDA:1,_ZN3s214listIiE17ListConstIteratorC2ERKNS1_12ListIteratorE
FNDA:20,_ZNK3s214listIiE17ListConstIteratordeEv
FNDA:19,_ZN3s214listIiE17ListConstIteratorppEv
FNDA:2,_ZN3s214listI16ExceptionTriggerE12ListIteratorC2EPNS2_8ListNodeE
FNDA:57,_ZN3s214listIiE12ListIteratorC2EPNS1_8ListNodeE
FNDA:2,_ZN3s214listIiE17ListConstIteratormmEv
FNDA:21,_ZNK3s214listIiE17ListConstIteratorneERKS2_
FNDA:1,_ZNK3s214listIiE17ListConstIterator8is_validERKS1_
FNDA:68,_ZN3s214listIiE12ListIteratordeEv
FNDA:1,_ZN3s214listI16ExceptionTriggerE5beginEv
FNDA:32,_ZN3s214listIiE5beginEv
FNDA:1,_ZN3s214listI16ExceptionTriggerE3endEv
FNDA:21,_ZN3s214listIiE3endEv
FNDA:7,_ZNK3s214listIiE5beginEv
FNDA:6,_ZNK3s214listIiE3endEv
FNDA:4,_ZNK3s214listIiE6cbeginEv
FNDA:4,_ZNK3s214listIiE4cendEv
FNDA:47,_ZN3s214listIiE12ListIteratorppEv
FNDA:19,_ZN3s214listIiE12ListIteratorppEi
FNDA:5,_ZN3s214listIiE12ListIteratormmEv
FNDA:1,_ZNK3s214listI16ExceptionTriggerE12ListIteratoreqERKS3_
FNDA:18,_ZNK3s214listIiE12ListIteratorneERKS2_
FNDA:10,_ZNK3s214listIiE12ListIterator8is_validERKS1_
FNF:24
FNH:24
DA:13,59
DA:20,68
DA:21,68
DA:29,47
DA:30,47
DA:31,47
DA:39,19
DA:40,19
DA:41,19
DA:42,19
DA:51,5
DA:52,5
DA:53,3
DA:55,2
DA:57,3
DA:66,1
DA:68,1
DA:77,18
DA:79,18
DA:88,10
DA:89,10
DA:90,25
DA:91,21
DA:92,6
DA:94,15
DA:96,4
DA:104,21
DA:111,1
DA:112,1
DA:120,20
DA:121,20
DA:129,19
DA:130,19
DA:131,19
DA:152,2
DA:153,2
DA:154,1
DA:156,1
DA:158,1
DA:178,21
DA:180,21
DA:189,1
DA:190,1
DA:191,3
DA:192,2
DA:193,2
DA:195,1
DA:203,33
DA:204,33
DA:212,22
DA:213,22
DA:221,7
DA:222,7
DA:231,6
DA:232,6
DA:240,4
DA:241,4
DA:250,4
DA:251,4
LF:59
LH:59
end_of_record
TN:
SF:/root/project/containers/list/s21_list_modifiers.tpp
FN:104,121,_ZN3s214listIiE6insertENS1_12ListIteratorERKi
FN:129,145,_ZN3s214listIiE5eraseENS1_12ListIteratorE
FN:13,22,_ZN3s214listI16ExceptionTriggerE9push_backERKS1_
FN:13,22,_ZN3s214listIiE9push_backERKi
FN:151,159,_ZN3s214listI16ExceptionTriggerE5clearEv
FN:151,159,_ZN3s214listISt10unique_ptrIiSt14default_deleteIiEEE5clearEv
FN:151,159,_ZN3s214listIZN25QueueTest_CustomType_Test8TestBodyEvE10TestStructE5clearEv
FN:151,159,_ZN3s214listIiE5clearEv
FN:166,170,_ZN3s214listIiE4swapERS1_
FN:29,38,_ZN3s214listI16ExceptionTriggerE9push_backEOS1_
FN:29,38,_ZN3s214listISt10unique_ptrIiSt14default_deleteIiEEE9push_backEOS4_
FN:29,38,_ZN3s214listIZN25QueueTest_CustomType_Test8TestBodyEvE10TestStructE9push_backEOS2_
FN:29,38,_ZN3s214listIiE9push_backEOi
FN:45,59,_ZN3s214listIiE8pop_backEv
FN:66,73,_ZN3s214listIiE10push_frontERKi
FN:80,94,_ZN3s214listISt10unique_ptrIiSt14default_deleteIiEEE9pop_frontEv
FN:80,94,_ZN3s214listIiE9pop_frontEv
FNDA:4,_ZN3s214listIiE6insertENS1_12ListIteratorERKi
FNDA:5,_ZN3s214listIiE5eraseENS1_12ListIteratorE
FNDA:6,_ZN3s214listI16ExceptionTriggerE9push_backERKS1_
FNDA:1010894,_ZN3s214listIiE9push_backERKi
FNDA:8,_ZN3s214listI16ExceptionTriggerE5clearEv
FNDA:1,_ZN3s214listISt10unique_ptrIiSt14default_deleteIiEEE5clearEv
FNDA:1,_ZN3s214listIZN25QueueTest_CustomType_Test8TestBodyEvE10TestStructE5clearEv
FNDA:632,_ZN3s214listIiE5clearEv
FNDA:7,_ZN3s214listIiE4swapERS1_
FNDA:2,_ZN3s214listI16ExceptionTriggerE9push_backEOS1_
FNDA:2,_ZN3s214listISt10unique_ptrIiSt14default_deleteIiEEE9push_backEOS4_
FNDA:2,_ZN3s214listIZN25QueueTest_CustomType_Test8TestBodyEvE10TestStructE9push_backEOS2_
FNDA:18,_ZN3s214listIiE9push_backEOi
FNDA:5,_ZN3s214listIiE8pop_backEv
FNDA:2,_ZN3s214listIiE10push_frontERKi
FNDA:1,_ZN3s214listISt10unique_ptrIiSt14default_deleteIiEEE9pop_frontEv
FNDA:6,_ZN3s214listIiE9pop_frontEv
FNF:17
FNH:17
DA:13,1010900
DA:14,1010900
DA:15,1010897
DA:16,1010661
DA:18,236
DA:20,1010897
DA:21,1010897
DA:22,1010897
DA:29,24
DA:30,24
DA:31,24
DA:32,12
DA:34,12
DA:36,24
DA:37,24
DA:38,24
DA:45,5
DA:46,5
DA:47,3
DA:48,3
DA:49,3
DA:50,3
DA:52,0
DA:54,3
DA:55,3
DA:57,2
DA:59,3
DA:66,2
DA:67,2
DA:68,2
DA:69,2
DA:71,2
DA:72,2
DA:73,2
DA:80,7
DA:81,7
DA:82,5
DA:83,5
DA:84,5
DA:85,3
DA:87,2
DA:89,5
DA:90,5
DA:92,2
DA:94,5
DA:104,4
DA:106,4
DA:107,1
DA:110,3
DA:111,1
DA:112,1
DA:114,2
DA:115,2
DA:116,2
DA:117,2
DA:118,2
DA:119,2
DA:129,5
DA:130,5
DA:131,2
DA:134,3
DA:135,1
DA:136,2
DA:137,1
DA:138,1
DA:139,1
DA:140,1
DA:141,1
DA:142,1
DA:143,1
DA:145,3
DA:151,642
DA:152,1012193
DA:153,1010909
DA:154,1010909
DA:155,1010909
DA:157,642
DA:158,642
DA:159,642
DA:166,7
DA:167,7
DA:168,7
DA:169,7
DA:170,7
LF:84
LH:83
end_of_record
TN:
SF:/root/project/containers/list/s21_list_node.tpp
FN:15,16,_ZN3s214listI16ExceptionTriggerE8ListNodeC2ERKS1_PS3_S6_
FN:15,16,_ZN3s214listIiE8ListNodeC2ERKiPS2_S5_
FN:25,26,_ZN3s214listI16ExceptionTriggerE8ListNodeC2EOS1_PS3_S5_
FN:25,26,_ZN3s214listISt10unique_ptrIiSt14default_deleteIiEEE8ListNodeC2EOS4_PS6_S8_
FN:25,26,_ZN3s214listIZN25QueueTest_CustomType_Test8TestBodyEvE10TestStructE8ListNodeC2EOS2_PS4_S6_
FN:25,26,_ZN3s214listIiE8ListNodeC2EOiPS2_S4_
FNDA:6,_ZN3s214listI16ExceptionTriggerE8ListNodeC2ERKS1_PS3_S6_
FNDA:1010898,_ZN3s214listIiE8ListNodeC2ERKiPS2_S5_
FNDA:2,_ZN3s214listI16ExceptionTriggerE8ListNodeC2EOS1_PS3_S5_
FNDA:2,_ZN3s214listISt10unique_ptrIiSt14default_deleteIiEEE8ListNodeC2EOS4_PS6_S8_
FNDA:2,_ZN3s214listIZN25QueueTest_CustomType_Test8TestBodyEvE10TestStructE8ListNodeC2EOS2_PS4_S6_
FNDA:31,_ZN3s214listIiE8ListNodeC2EOiPS2_S4_
FNF:6
FNH:6
DA:15,1010904
DA:16,1010904
DA:25,37
DA:26,37
LF:4
LH:4
end_of_record
TN:
SF:/root/project/containers/list/s21_list_operators.tpp
FN:14,20,_ZN3s214listIiEaSERKS1_
FN:28,39,_ZN3s214listI16ExceptionTriggerEaSEOS2_
FN:28,39,_ZN3s214listIiEaSEOS1_
FNDA:4,_ZN3s214listIiEaSERKS1_
FNDA:1,_ZN3s214listI16ExceptionTriggerEaSEOS2_
FNDA:182,_ZN3s214listIiEaSEOS1_
FNF:3
FNH:3
DA:14,4
DA:15,4
DA:16,3
DA:17,3
DA:18,3
DA:19,4
DA:28,183
DA:29,183
DA:30,182
DA:31,182
DA:32,182
DA:33,182
DA:34,182
DA:35,182
DA:36,182
DA:38,183
LF:16
LH:16
end_of_record
TN:
SF:/root/project/containers/map/s21_map.h
FN:106,106,_ZN3s213mapIicE11MapIteratorC2Ev
FN:107,108,_ZN3s213mapIiNSt7__cxx1112basic_stringIcSt11char_traitsIcESaIcEEEE11MapIteratorC2ENS_6RBTreeIiS6_E8IteratorE
FN:107,108,_ZN3s213mapIicE11MapIteratorC2ENS_6RBTreeIicE8IteratorE
FN:107,108,_ZN3s213mapIiiE11MapIteratorC2ENS_6RBTreeIiiE8IteratorE
FN:107,108,_ZN3s213mapIimE11MapIteratorC2ENS_6RBTreeIimE8IteratorE
FN:109,110,_ZN3s213mapIicE11MapIteratorC2EPNS_6RBTreeIicE10RBTreeNodeES6_
FN:109,110,_ZN3s213mapIimE11MapIteratorC2EPNS_6RBTreeIimE10RBTreeNodeES6_
FN:160,161,_ZN3s213mapIicE16ConstMapIteratorC2ENS_6RBTreeIicE13ConstIteratorE
FN:160,161,_ZN3s213mapIimE16ConstMapIteratorC2ENS_6RBTreeIimE13ConstIteratorE
FN:38,38,_ZN3s213mapIiNSt7__cxx1112basic_stringIcSt11char_traitsIcESaIcEEEEC2Ev
FN:38,38,_ZN3s213mapIicEC2Ev
FN:38,38,_ZN3s213mapIiiEC2Ev
FN:38,38,_ZN3s213mapIimEC2Ev
FN:50,50,_ZN3s213mapIiiEC2ERKS1_
FN:50,50,_ZN3s213mapIimEC2ERKS1_
FN:56,56,_ZN3s213mapIimEC2EOS1_
FN:72,72,_ZN3s213mapIiNSt7__cxx1112basic_stringIcSt11char_traitsIcESaIcEEEED0Ev
FN:72,72,_ZN3s213mapIiNSt7__cxx1112basic_stringIcSt11char_traitsIcESaIcEEEED2Ev
FN:72,72,_ZN3s213mapIicED0Ev
FN:72,72,_ZN3s213mapIicED2Ev
FN:72,72,_ZN3s213mapIiiED0Ev
FN:72,72,_ZN3s213mapIiiED2Ev
FN:72,72,_ZN3s213mapIimED0Ev
FN:72,72,_ZN3s213mapIimED2Ev
FNDA:16,_ZN3s213mapIicE11MapIteratorC2Ev
FNDA:46,_ZN3s213mapIiNSt7__cxx1112basic_stringIcSt11char_traitsIcESaIcEEEE11MapIteratorC2ENS_6RBTreeIiS6_E8IteratorE
FNDA:118,_ZN3s213mapIicE11MapIteratorC2ENS_6RBTreeIicE8IteratorE
FNDA:72,_ZN3s213mapIiiE11MapIteratorC2ENS_6RBTreeIiiE8IteratorE
FNDA:82659,_ZN3s213mapIimE11MapIteratorC2ENS_6RBTreeIimE8IteratorE
FNDA:10,_ZN3s213mapIicE11MapIteratorC2EPNS_6RBTreeIicE10RBTreeNodeES6_
FNDA:33,_ZN3s213mapIimE11MapIteratorC2EPNS_6RBTreeIimE10RBTreeNodeES6_
FNDA:10,_ZN3s213mapIicE16ConstMapIteratorC2ENS_6RBTreeIicE13ConstIteratorE
FNDA:33,_ZN3s213mapIimE16ConstMapIteratorC2ENS_6RBTreeIimE13ConstIteratorE
FNDA:2,_ZN3s213mapIiNSt7__cxx1112basic_stringIcSt11char_traitsIcESaIcEEEEC2Ev
FNDA:40,_ZN3s213mapIicEC2Ev
FNDA:21,_ZN3s213mapIiiEC2Ev
FNDA:240,_ZN3s213mapIimEC2Ev
FNDA:1,_ZN3s213mapIiiEC2ERKS1_
FNDA:2,_ZN3s213mapIimEC2ERKS1_
FNDA:1,_ZN3s213mapIimEC2EOS1_
FNDA:0,_ZN3s213mapIiNSt7__cxx1112basic_stringIcSt11char_traitsIcESaIcEEEED0Ev
FNDA:5,_ZN3s213mapIiNSt7__cxx1112basic_stringIcSt11char_traitsIcESaIcEEEED2Ev
FNDA:0,_ZN3s213mapIicED0Ev
FNDA:63,_ZN3s213mapIicED2Ev
FNDA:0,_ZN3s213mapIiiED0Ev
FNDA:42,_ZN3s213mapIiiED2Ev
FNDA:0,_ZN3s213mapIimED0Ev
FNDA:243,_ZN3s213mapIimED2Ev
FNF:24
FNH:20
DA:38,303
DA:50,3
DA:56,1
DA:72,353
DA:106,16
DA:107,82895
DA:108,82895
DA:109,43
DA:110,43
DA:160,43
DA:161,43
LF:11
LH:11
end_of_record
TN:
SF:/root/project/containers/map/s21_map_access.tpp
FN:15,19,_ZN3s213mapIicE2atERKi
FN:27,34,_ZN3s213mapIiNSt7__cxx1112basic_stringIcSt11char_traitsIcESaIcEEEEixERKi
FN:27,34,_ZN3s213mapIicEixERKi
FNDA:2,_ZN3s213mapIicE2atERKi
FNDA:7,_ZN3s213mapIiNSt7__cxx1112basic_stringIcSt11char_traitsIcESaIcEEEEixERKi
FNDA:4,_ZN3s213mapIicEixERKi
FNF:3
FNH:3
DA:15,2
DA:16,2
DA:17,2
DA:18,1
DA:27,11
DA:28,11
DA:29,11
DA:30,6
DA:31,6
DA:33,5
LF:10
LH:10
end_of_record
TN:
SF:/root/project/containers/map/s21_map_capacity.tpp
FN:13,15,_ZNK3s213mapIiNSt7__cxx1112basic_stringIcSt11char_traitsIcESaIcEEEE5emptyEv
FN:13,15,_ZNK3s213mapIicE5emptyEv
FN:22,24,_ZNK3s213mapIiNSt7__cxx1112basic_stringIcSt11char_traitsIcESaIcEEEE4sizeEv
FN:22,24,_ZNK3s213mapIicE4sizeEv
FN:22,24,_ZNK3s213mapIiiE4sizeEv
FN:32,34,_ZNK3s213mapIimE8max_sizeEv
FNDA:1,_ZNK3s213mapIiNSt7__cxx1112basic_stringIcSt11char_traitsIcESaIcEEEE5emptyEv
FNDA:4,_ZNK3s213mapIicE5emptyEv
FNDA:7,_ZNK3s213mapIiNSt7__cxx1112basic_stringIcSt11char_traitsIcESaIcEEEE4sizeEv
FNDA:9,_ZNK3s213mapIicE4sizeEv
FNDA:4,_ZNK3s213mapIiiE4sizeEv
FNDA:1,_ZNK3s213mapIimE8max_sizeEv
FNF:6
FNH:6
DA:13,5
DA:14,5
DA:22,20
DA:23,20
DA:32,1
DA:33,1
LF:6
LH:6
end_of_record
TN:
SF:/root/project/containers/map/s21_map_constructors.tpp
FN:13,18,_ZN3s213mapIiNSt7__cxx1112basic_stringIcSt11char_traitsIcESaIcEEEEC2ERKSt16initializer_listISt4pairIKiS6_EE
FN:13,18,_ZN3s213mapIicEC2ERKSt16initializer_listISt4pairIKicEE
FN:13,18,_ZN3s213mapIiiEC2ERKSt16initializer_listISt4pairIKiiEE
FN:26,31,_ZN3s213mapIicEaSEOS1_
FN:26,31,_ZN3s213mapIiiEaSEOS1_
FN:26,31,_ZN3s213mapIimEaSEOS1_
FN:39,44,_ZN3s213mapIiiEaSERKS1_
FN:39,44,_ZN3s213mapIimEaSERKS1_
FNDA:3,_ZN3s213mapIiNSt7__cxx1112basic_stringIcSt11char_traitsIcESaIcEEEEC2ERKSt16initializer_listISt4pairIKiS6_EE
FNDA:23,_ZN3s213mapIicEC2ERKSt16initializer_listISt4pairIKicEE
FNDA:20,_ZN3s213mapIiiEC2ERKSt16initializer_listISt4pairIKiiEE
FNDA:20,_ZN3s213mapIicEaSEOS1_
FNDA:20,_ZN3s213mapIiiEaSEOS1_
FNDA:88,_ZN3s213mapIimEaSEOS1_
FNDA:1,_ZN3s213mapIiiEaSERKS1_
FNDA:1,_ZN3s213mapIimEaSERKS1_
FNF:8
FNH:8
DA:13,46
DA:14,46
DA:15,200
DA:16,154
DA:18,46
DA:26,128
DA:27,128
DA:28,128
DA:30,128
DA:39,2
DA:40,2
DA:41,2
DA:43,2
LF:13
LH:13
end_of_record
TN:
SF:/root/project/containers/map/s21_map_insert_many.tpp
FN:17,23,_ZN3s213mapIicE11insert_manyIJEEENS_6vectorISt4pairINS1_11MapIteratorEbEEEDpOT_
FN:17,23,_ZN3s213mapIicE11insert_manyIJSt4pairIKicES5_S5_EEENS_6vectorIS3_INS1_11MapIteratorEbEEEDpOT_
FNDA:1,_ZN3s213mapIicE11insert_manyIJEEENS_6vectorISt4pairINS1_11MapIteratorEbEEEDpOT_
FNDA:2,_ZN3s213mapIicE11insert_manyIJSt4pairIKicES5_S5_EEENS_6vectorIS3_INS1_11MapIteratorEbEEEDpOT_
FNF:2
FNH:2
DA:17,3
DA:20,3
DA:21,2
DA:22,3
DA:23,0
LF:5
LH:4
end_of_record
TN:
SF:/root/project/containers/map/s21_map_iterators.tpp
FN:13,16,_ZN3s213mapIiNSt7__cxx1112basic_stringIcSt11char_traitsIcESaIcEEEE5beginEv
FN:13,16,_ZN3s213mapIicE5beginEv
FN:13,16,_ZN3s213mapIiiE5beginEv
FN:13,16,_ZN3s213mapIimE5beginEv
FN:23,25,_ZN3s213mapIiNSt7__cxx1112basic_stringIcSt11char_traitsIcESaIcEEEE3endEv
FN:23,25,_ZN3s213mapIicE3endEv
FN:23,25,_ZN3s213mapIiiE3endEv
FN:23,25,_ZN3s213mapIimE3endEv
FN:32,35,_ZNK3s213mapIiNSt7__cxx1112basic_stringIcSt11char_traitsIcESaIcEEEE11MapIteratordeEv
FN:32,35,_ZNK3s213mapIicE11MapIteratordeEv
FN:32,35,_ZNK3s213mapIiiE11MapIteratordeEv
FN:42,45,_ZN3s213mapIiNSt7__cxx1112basic_stringIcSt11char_traitsIcESaIcEEEE11MapIteratorppEv
FN:42,45,_ZN3s213mapIicE11MapIteratorppEv
FN:42,45,_ZN3s213mapIiiE11MapIteratorppEv
FN:42,45,_ZN3s213mapIimE11MapIteratorppEv
FN:64,66,_ZNK3s213mapIiNSt7__cxx1112basic_stringIcSt11char_traitsIcESaIcEEEE11MapIteratorneERKS8_
FN:64,66,_ZNK3s213mapIicE11MapIteratorneERKS2_
FN:64,66,_ZNK3s213mapIiiE11MapIteratorneERKS2_
FN:64,66,_ZNK3s213mapIimE11MapIteratorneERKS2_
FN:74,76,_ZNK3s213mapIiNSt7__cxx1112basic_stringIcSt11char_traitsIcESaIcEEEE11MapIteratoreqERKS8_
FN:74,76,_ZNK3s213mapIicE11MapIteratoreqERKS2_
FN:84,86,_ZNK3s213mapIicE16ConstMapIteratordeEv
FN:84,86,_ZNK3s213mapIimE16ConstMapIteratordeEv
FN:94,97,_ZNK3s213mapIicE16ConstMapIteratoreqERKS2_
FNDA:4,_ZN3s213mapIiNSt7__cxx1112basic_stringIcSt11char_traitsIcESaIcEEEE5beginEv
FNDA:6,_ZN3s213mapIicE5beginEv
FNDA:4,_ZN3s213mapIiiE5beginEv
FNDA:17,_ZN3s213mapIimE5beginEv
FNDA:20,_ZN3s213mapIiNSt7__cxx1112basic_stringIcSt11char_traitsIcESaIcEEEE3endEv
FNDA:12,_ZN3s213mapIicE3endEv
FNDA:8,_ZN3s213mapIiiE3endEv
FNDA:43057,_ZN3s213mapIimE3endEv
FNDA:25,_ZNK3s213mapIiNSt7__cxx1112basic_stringIcSt11char_traitsIcESaIcEEEE11MapIteratordeEv
FNDA:14,_ZNK3s213mapIicE11MapIteratordeEv
FNDA:24,_ZNK3s213mapIiiE11MapIteratordeEv
FNDA:15,_ZN3s213mapIiNSt7__cxx1112basic_stringIcSt11char_traitsIcESaIcEEEE11MapIteratorppEv
FNDA:8,_ZN3s213mapIicE11MapIteratorppEv
FNDA:12,_ZN3s213mapIiiE11MapIteratorppEv
FNDA:5,_ZN3s213mapIimE11MapIteratorppEv
FNDA:12,_ZNK3s213mapIiNSt7__cxx1112basic_stringIcSt11char_traitsIcESaIcEEEE11MapIteratorneERKS8_
FNDA:12,_ZNK3s213mapIicE11MapIteratorneERKS2_
FNDA:8,_ZNK3s213mapIiiE11MapIteratorneERKS2_
FNDA:39598,_ZNK3s213mapIimE11MapIteratorneERKS2_
FNDA:7,_ZNK3s213mapIiNSt7__cxx1112basic_stringIcSt11char_traitsIcESaIcEEEE11MapIteratoreqERKS8_
FNDA:4,_ZNK3s213mapIicE11MapIteratoreqERKS2_
FNDA:10,_ZNK3s213mapIicE16ConstMapIteratordeEv
FNDA:5,_ZNK3s213mapIimE16ConstMapIteratordeEv
FNDA:1,_ZNK3s213mapIicE16ConstMapIteratoreqERKS2_
FNF:24
FNH:24
DA:13,31
DA:14,31
DA:15,31
DA:23,43097
DA:24,43097
DA:32,63
DA:33,63
DA:34,126
DA:42,40
DA:43,40
DA:44,40
DA:64,39630
DA:65,39630
DA:74,11
DA:75,11
DA:84,15
DA:85,15
DA:94,1
DA:96,1
LF:19
LH:19
end_of_record
TN:
SF:/root/project/containers/map/s21_map_lookup.tpp
FN:14,17,_ZN3s213mapIiNSt7__cxx1112basic_stringIcSt11char_traitsIcESaIcEEEE4findERKi
FN:14,17,_ZN3s213mapIicE4findERKi
FN:14,17,_ZN3s213mapIiiE4findERKi
FN:14,17,_ZN3s213mapIimE4findERKi
FN:26,29,_ZNK3s213mapIicE4findERKi
FN:26,29,_ZNK3s213mapIimE4findERKi
FN:37,39,_ZNK3s213mapIiNSt7__cxx1112basic_stringIcSt11char_traitsIcESaIcEEEE8containsERKi
FN:37,39,_ZNK3s213mapIicE8containsERKi
FN:37,39,_ZNK3s213mapIiiE8containsERKi
FN:37,39,_ZNK3s213mapIimE8containsERKi
FNDA:27,_ZN3s213mapIiNSt7__cxx1112basic_stringIcSt11char_traitsIcESaIcEEEE4findERKi
FNDA:101,_ZN3s213mapIicE4findERKi
FNDA:60,_ZN3s213mapIiiE4findERKi
FNDA:42987,_ZN3s213mapIimE4findERKi
FNDA:2,_ZNK3s213mapIicE4findERKi
FNDA:13,_ZNK3s213mapIimE4findERKi
FNDA:28,_ZNK3s213mapIiNSt7__cxx1112basic_stringIcSt11char_traitsIcESaIcEEEE8containsERKi
FNDA:101,_ZNK3s213mapIicE8containsERKi
FNDA:60,_ZNK3s213mapIiiE8containsERKi
FNDA:3417,_ZNK3s213mapIimE8containsERKi
FNF:10
FNH:10
DA:14,43175
DA:15,43175
DA:16,43175
DA:26,15
DA:27,15
DA:28,15
DA:37,3606
DA:38,3606
LF:8
LH:8
end_of_record
TN:
SF:/root/project/containers/map/s21_map_modifiers.tpp
FN:104,106,_ZN3s213mapIicE5clearEv
FN:104,106,_ZN3s213mapIimE5clearEv
FN:113,115,_ZNK3s213mapIicE5beginEv
FN:122,124,_ZNK3s213mapIicE3endEv
FN:122,124,_ZNK3s213mapIimE3endEv
FN:14,21,_ZN3s213mapIiNSt7__cxx1112basic_stringIcSt11char_traitsIcESaIcEEEE6insertERKSt4pairIKiS6_E
FN:14,21,_ZN3s213mapIicE6insertERKSt4pairIKicE
FN:14,21,_ZN3s213mapIiiE6insertERKSt4pairIKiiE
FN:30,37,_ZN3s213mapIimE6insertERKiRKm
FN:63,77,_ZN3s213mapIiNSt7__cxx1112basic_stringIcSt11char_traitsIcESaIcEEEE5mergeERS7_
FN:63,77,_ZN3s213mapIicE5mergeERS1_
FN:84,89,_ZN3s213mapIiNSt7__cxx1112basic_stringIcSt11char_traitsIcESaIcEEEE5eraseENS7_11MapIteratorE
FN:84,89,_ZN3s213mapIicE5eraseENS1_11MapIteratorE
FN:96,98,_ZN3s213mapIicE4swapERS1_
FN:96,98,_ZN3s213mapIimE4swapERS1_
FNDA:1,_ZN3s213mapIicE5clearEv
FNDA:126,_ZN3s213mapIimE5clearEv
FNDA:2,_ZNK3s213mapIicE5beginEv
FNDA:7,_ZNK3s213mapIicE3endEv
FNDA:13,_ZNK3s213mapIimE3endEv
FNDA:19,_ZN3s213mapIiNSt7__cxx1112basic_stringIcSt11char_traitsIcESaIcEEEE6insertERKSt4pairIKiS6_E
FNDA:97,_ZN3s213mapIicE6insertERKSt4pairIKicE
FNDA:60,_ZN3s213mapIiiE6insertERKSt4pairIKiiE
FNDA:3402,_ZN3s213mapIimE6insertERKiRKm
FNDA:2,_ZN3s213mapIiNSt7__cxx1112basic_stringIcSt11char_traitsIcESaIcEEEE5mergeERS7_
FNDA:1,_ZN3s213mapIicE5mergeERS1_
FNDA:5,_ZN3s213mapIiNSt7__cxx1112basic_stringIcSt11char_traitsIcESaIcEEEE5eraseENS7_11MapIteratorE
FNDA:4,_ZN3s213mapIicE5eraseENS1_11MapIteratorE
FNDA:1,_ZN3s213mapIicE4swapERS1_
FNDA:1,_ZN3s213mapIimE4swapERS1_
FNF:15
FNH:15
DA:14,176
DA:16,176
DA:17,176
DA:18,173
DA:20,176
DA:30,3402
DA:32,3402
DA:33,3402
DA:34,3402
DA:36,3402
DA:63,3
DA:64,3
DA:65,3
DA:66,10
DA:67,7
DA:68,6
DA:69,6
DA:70,6
DA:71,6
DA:73,1
DA:77,3
DA:84,9
DA:85,9
DA:86,1
DA:88,8
DA:89,8
DA:96,2
DA:97,2
DA:98,2
DA:104,127
DA:105,127
DA:106,127
DA:113,2
DA:114,2
DA:122,20
DA:123,20
LF:36
LH:36
end_of_record
TN:
SF:/root/project/containers/queue/s21_queue_accessors.tpp
FN:14,19,_ZN3s215queueISt10unique_ptrIiSt14default_deleteIiEENS_4listIS4_EEE5frontEv
FN:14,19,_ZN3s215queueIZN25QueueTest_CustomType_Test8TestBodyEvE10TestStructNS_4listIS2_EEE5frontEv
FN:14,19,_ZN3s215queueIiNS_4listIiEEE5frontEv
FN:27,33,_ZNK3s215queueIiNS_4listIiEEE5frontEv
FN:41,46,_ZN3s215queueISt10unique_ptrIiSt14default_deleteIiEENS_4listIS4_EEE4backEv
FN:41,46,_ZN3s215queueIZN25QueueTest_CustomType_Test8TestBodyEvE10TestStructNS_4listIS2_EEE4backEv
FN:41,46,_ZN3s215queueIiNS_4listIiEEE4backEv
FN:54,60,_ZNK3s215queueIiNS_4listIiEEE4backEv
FN:67,69,_ZNK3s215queueIiNS_4listIiEEE5emptyEv
FN:76,79,_ZNK3s215queueIZN25QueueTest_CustomType_Test8TestBodyEvE10TestStructNS_4listIS2_EEE4sizeEv
FN:76,79,_ZNK3s215queueIiNS_4listIiEEE4sizeEv
FNDA:2,_ZN3s215queueISt10unique_ptrIiSt14default_deleteIiEENS_4listIS4_EEE5frontEv
FNDA:1,_ZN3s215queueIZN25QueueTest_CustomType_Test8TestBodyEvE10TestStructNS_4listIS2_EEE5frontEv
FNDA:12,_ZN3s215queueIiNS_4listIiEEE5frontEv
FNDA:2,_ZNK3s215queueIiNS_4listIiEEE5frontEv
FNDA:1,_ZN3s215queueISt10unique_ptrIiSt14default_deleteIiEENS_4listIS4_EEE4backEv
FNDA:1,_ZN3s215queueIZN25QueueTest_CustomType_Test8TestBodyEvE10TestStructNS_4listIS2_EEE4backEv
FNDA:10,_ZN3s215queueIiNS_4listIiEEE4backEv
FNDA:2,_ZNK3s215queueIiNS_4listIiEEE4backEv
FNDA:8,_ZNK3s215queueIiNS_4listIiEEE5emptyEv
FNDA:1,_ZNK3s215queueIZN25QueueTest_CustomType_Test8TestBodyEvE10TestStructNS_4listIS2_EEE4sizeEv
FNDA:22,_ZNK3s215queueIiNS_4listIiEEE4sizeEv
FNF:11
FNH:11
DA:14,15
DA:15,15
DA:16,1
DA:18,14
DA:27,2
DA:29,2
DA:30,0
DA:32,2
DA:41,12
DA:42,12
DA:43,1
DA:45,11
DA:54,2
DA:56,2
DA:57,0
DA:59,2
DA:67,8
DA:68,8
DA:76,23
DA:78,23
LF:20
LH:18
end_of_record
TN:
SF:/root/project/containers/queue/s21_queue_constructors.tpp
FN:12,12,_ZN3s215queueISt10unique_ptrIiSt14default_deleteIiEENS_4listIS4_EEEC2Ev
FN:12,12,_ZN3s215queueIZN25QueueTest_CustomType_Test8TestBodyEvE10TestStructNS_4listIS2_EEEC2Ev
FN:12,12,_ZN3s215queueIiNS_4listIiEEEC2Ev
FN:19,20,_ZN3s215queueIiNS_4listIiEEEC2ERKSt16initializer_listIiE
FN:27,27,_ZN3s215queueIiNS_4listIiEEEC2ERKS3_
FN:34,35,_ZN3s215queueIiNS_4listIiEEEC2EOS3_
FN:41,41,_ZN3s215queueISt10unique_ptrIiSt14default_deleteIiEENS_4listIS4_EEED2Ev
FN:41,41,_ZN3s215queueIZN25QueueTest_CustomType_Test8TestBodyEvE10TestStructNS_4listIS2_EEED2Ev
FN:41,41,_ZN3s215queueIiNS_4listIiEEED2Ev
FN:49,54,_ZN3s215queueIiNS_4listIiEEEaSEOS3_
FN:62,67,_ZN3s215queueIiNS_4listIiEEEaSERKS3_
FNDA:1,_ZN3s215queueISt10unique_ptrIiSt14default_deleteIiEENS_4listIS4_EEEC2Ev
FNDA:1,_ZN3s215queueIZN25QueueTest_CustomType_Test8TestBodyEvE10TestStructNS_4listIS2_EEEC2Ev
FNDA:67,_ZN3s215queueIiNS_4listIiEEEC2Ev
FNDA:57,_ZN3s215queueIiNS_4listIiEEEC2ERKSt16initializer_listIiE
FNDA:1,_ZN3s215queueIiNS_4listIiEEEC2ERKS3_
FNDA:2,_ZN3s215queueIiNS_4listIiEEEC2EOS3_
FNDA:1,_ZN3s215queueISt10unique_ptrIiSt14default_deleteIiEENS_4listIS4_EEED2Ev
FNDA:1,_ZN3s215queueIZN25QueueTest_CustomType_Test8TestBodyEvE10TestStructNS_4listIS2_EEED2Ev
FNDA:127,_ZN3s215queueIiNS_4listIiEEED2Ev
FNDA:55,_ZN3s215queueIiNS_4listIiEEEaSEOS3_
FNDA:1,_ZN3s215queueIiNS_4listIiEEEaSERKS3_
FNF:11
FNH:11
DA:12,69
DA:19,57
DA:20,57
DA:27,1
DA:34,2
DA:35,2
DA:41,129
DA:49,55
DA:50,55
DA:51,55
DA:53,55
DA:62,1
DA:63,1
DA:64,1
DA:66,1
LF:15
LH:15
end_of_record
TN:
SF:/root/project/containers/queue/s21_queue_insert_many.tpp
FN:15,17,_ZN3s215queueIiNS_4listIiEEE16insert_many_backIJiiEEEvDpOT_
FN:15,17,_ZN3s215queueIiNS_4listIiEEE16insert_many_backIJiiiEEEvDpOT_
FNDA:1,_ZN3s215queueIiNS_4listIiEEE16insert_many_backIJiiEEEvDpOT_
FNDA:1,_ZN3s215queueIiNS_4listIiEEE16insert_many_backIJiiiEEEvDpOT_
FNF:2
FNH:2
DA:15,2
DA:16,2
DA:17,2
LF:3
LH:3
end_of_record
TN:
SF:/root/project/containers/queue/s21_queue_modifiers.tpp
FN:13,15,_ZN3s215queueIiNS_4listIiEEE4pushERKi
FN:22,24,_ZN3s215queueISt10unique_ptrIiSt14default_deleteIiEENS_4listIS4_EEE4pushEOS4_
FN:22,24,_ZN3s215queueIZN25QueueTest_CustomType_Test8TestBodyEvE10TestStructNS_4listIS2_EEE4pushEOS2_
FN:22,24,_ZN3s215queueIiNS_4listIiEEE4pushEOi
FN:30,32,_ZN3s215queueISt10unique_ptrIiSt14default_deleteIiEENS_4listIS4_EEE3popEv
FN:30,32,_ZN3s215queueIiNS_4listIiEEE3popEv
FN:39,41,_ZN3s215queueIiNS_4listIiEEE4swapERS3_
FNDA:1000000,_ZN3s215queueIiNS_4listIiEEE4pushERKi
FNDA:2,_ZN3s215queueISt10unique_ptrIiSt14default_deleteIiEENS_4listIS4_EEE4pushEOS4_
FNDA:2,_ZN3s215queueIZN25QueueTest_CustomType_Test8TestBodyEvE10TestStructNS_4listIS2_EEE4pushEOS2_
FNDA:8,_ZN3s215queueIiNS_4listIiEEE4pushEOi
FNDA:1,_ZN3s215queueISt10unique_ptrIiSt14default_deleteIiEENS_4listIS4_EEE3popEv
FNDA:2,_ZN3s215queueIiNS_4listIiEEE3popEv
FNDA:3,_ZN3s215queueIiNS_4listIiEEE4swapERS3_
FNF:7
FNH:7
DA:13,1000000
DA:14,1000000
DA:15,1000000
DA:22,12
DA:23,12
DA:24,12
DA:30,3
DA:31,3
DA:32,2
DA:39,3
DA:40,3
DA:41,3
LF:12
LH:12
end_of_record
TN:
SF:/root/project/containers/set/s21_set.h
FN:31,31,_ZN3s213setIiEC2Ev
FN:45,45,_ZN3s213setIiEC2ERKS1_
FN:52,52,_ZN3s213setIiEC2EOS1_
FN:73,73,_ZN3s213setIiED0Ev
FN:73,73,_ZN3s213setIiED2Ev
FNDA:46,_ZN3s213setIiEC2Ev
FNDA:1,_ZN3s213setIiEC2ERKS1_
FNDA:1,_ZN3s213setIiEC2EOS1_
FNDA:0,_ZN3s213setIiED0Ev
FNDA:75,_ZN3s213setIiED2Ev
FNF:5
FNH:4
DA:31,46
DA:45,1
DA:52,1
DA:73,75
LF:4
LH:4
end_of_record
TN:
SF:/root/project/containers/set/s21_set_accessors.tpp
FN:105,107,_ZNK3s213setIiE8max_sizeEv
FN:116,118,_ZNK3s213setIiE5emptyEv
FN:127,129,_ZNK3s213setIiE4sizeEv
FN:137,139,_ZN3s213setIiE5clearEv
FN:15,17,_ZN3s213setIiE5beginEv
FN:26,28,_ZN3s213setIiE3endEv
FN:37,39,_ZNK3s213setIiE6cbeginEv
FN:59,61,_ZN3s213setIiE5mergeERS1_
FN:70,72,_ZN3s213setIiE4swapERS1_
FN:82,84,_ZN3s213setIiE4findERKi
FN:94,96,_ZNK3s213setIiE8containsERKi
FNDA:1,_ZNK3s213setIiE8max_sizeEv
FNDA:5,_ZNK3s213setIiE5emptyEv
FNDA:24,_ZNK3s213setIiE4sizeEv
FNDA:1,_ZN3s213setIiE5clearEv
FNDA:11,_ZN3s213setIiE5beginEv
FNDA:21,_ZN3s213setIiE3endEv
FNDA:1,_ZNK3s213setIiE6cbeginEv
FNDA:1,_ZN3s213setIiE5mergeERS1_
FNDA:1,_ZN3s213setIiE4swapERS1_
FNDA:115,_ZN3s213setIiE4findERKi
FNDA:129,_ZNK3s213setIiE8containsERKi
FNF:11
FNH:11
DA:15,11
DA:16,11
DA:26,21
DA:27,21
DA:37,1
DA:38,1
DA:59,1
DA:60,1
DA:61,1
DA:70,1
DA:71,1
DA:72,1
DA:82,115
DA:83,115
DA:94,129
DA:95,129
DA:105,1
DA:106,1
DA:116,5
DA:117,5
DA:127,24
DA:128,24
DA:137,1
DA:138,1
DA:139,1
LF:25
LH:25
end_of_record
TN:
SF:/root/project/containers/set/s21_set_constructors.tpp
FN:15,19,_ZN3s213setIiEC2ERKSt16initializer_listIiE
FN:29,34,_ZN3s213setIiEaSEOS1_
FN:44,49,_ZN3s213setIiEaSERKS1_
FNDA:27,_ZN3s213setIiEC2ERKSt16initializer_listIiE
FNDA:24,_ZN3s213setIiEaSEOS1_
FNDA:2,_ZN3s213setIiEaSERKS1_
FNF:3
FNH:3
DA:15,27
DA:16,130
DA:17,103
DA:19,27
DA:29,24
DA:30,24
DA:31,23
DA:33,24
DA:44,2
DA:45,2
DA:46,1
DA:48,2
LF:12
LH:12
end_of_record
TN:
SF:/root/project/containers/set/s21_set_insert_many.tpp
FN:18,23,_ZN3s213setIiE11insert_manyIJiEEENS_6vectorISt4pairINS_6RBTreeIiiE11SetIteratorEbEEEDpOT_
FN:18,23,_ZN3s213setIiE11insert_manyIJiiEEENS_6vectorISt4pairINS_6RBTreeIiiE11SetIteratorEbEEEDpOT_
FN:18,23,_ZN3s213setIiE11insert_manyIJiiiiEEENS_6vectorISt4pairINS_6RBTreeIiiE11SetIteratorEbEEEDpOT_
FNDA:1,_ZN3s213setIiE11insert_manyIJiEEENS_6vectorISt4pairINS_6RBTreeIiiE11SetIteratorEbEEEDpOT_
FNDA:1,_ZN3s213setIiE11insert_manyIJiiEEENS_6vectorISt4pairINS_6RBTreeIiiE11SetIteratorEbEEEDpOT_
FNDA:1,_ZN3s213setIiE11insert_manyIJiiiiEEENS_6vectorISt4pairINS_6RBTreeIiiE11SetIteratorEbEEEDpOT_
FNF:3
FNH:3
DA:18,3
DA:20,3
DA:21,3
DA:22,3
DA:23,0
LF:5
LH:4
end_of_record
TN:
SF:/root/project/containers/set/s21_set_modifiers.tpp
FN:16,23,_ZN3s213setIiE6insertERKi
FN:34,39,_ZN3s213setIiE5eraseENS_6RBTreeIiiE11SetIteratorE
FNDA:112,_ZN3s213setIiE6insertERKi
FNDA:3,_ZN3s213setIiE5eraseENS_6RBTreeIiiE11SetIteratorE
FNF:2
FNH:2
DA:16,112
DA:18,112
DA:19,112
DA:20,107
DA:22,112
DA:34,3
DA:35,3
DA:36,2
DA:38,1
DA:39,1
LF:10
LH:10
end_of_record
TN:
SF:/root/project/containers/stack/s21_stack_access.tpp
FN:14,19,_ZNK3s215stackIZN25StackTest_CustomType_Test8TestBodyEvE10TestStructNS_6vectorIS2_EEE3topEv
FN:14,19,_ZNK3s215stackIiNS_6vectorIiEEE3topEv
FN:26,28,_ZNK3s215stackIiNS_6vectorIiEEE5emptyEv
FN:35,38,_ZNK3s215stackIZN25StackTest_CustomType_Test8TestBodyEvE10TestStructNS_6vectorIS2_EEE4sizeEv
FN:35,38,_ZNK3s215stackIiNS_6vectorIiEEE4sizeEv
FNDA:1,_ZNK3s215stackIZN25StackTest_CustomType_Test8TestBodyEvE10TestStructNS_6vectorIS2_EEE3topEv
FNDA:29,_ZNK3s215stackIiNS_6vectorIiEEE3topEv
FNDA:25,_ZNK3s215stackIiNS_6vectorIiEEE5emptyEv
FNDA:1,_ZNK3s215stackIZN25StackTest_CustomType_Test8TestBodyEvE10TestStructNS_6vectorIS2_EEE4sizeEv
FNDA:21,_ZNK3s215stackIiNS_6vectorIiEEE4sizeEv
FNF:5
FNH:5
DA:14,30
DA:15,30
DA:16,1
DA:18,29
DA:26,25
DA:27,25
DA:35,22
DA:37,22
LF:8
LH:8
end_of_record
TN:
SF:/root/project/containers/stack/s21_stack_constructors.tpp
FN:12,12,_ZN3s215stackIZN25StackTest_CustomType_Test8TestBodyEvE10TestStructNS_6vectorIS2_EEEC2Ev
FN:12,12,_ZN3s215stackIiNS_6vectorIiEEEC2Ev
FN:19,20,_ZN3s215stackIiNS_6vectorIiEEEC2ERKSt16initializer_listIiE
FN:27,27,_ZN3s215stackIiNS_6vectorIiEEEC2ERKS3_
FN:34,35,_ZN3s215stackIiNS_6vectorIiEEEC2EOS3_
FN:41,41,_ZN3s215stackIZN25StackTest_CustomType_Test8TestBodyEvE10TestStructNS_6vectorIS2_EEED2Ev
FN:41,41,_ZN3s215stackIiNS_6vectorIiEEED2Ev
FNDA:1,_ZN3s215stackIZN25StackTest_CustomType_Test8TestBodyEvE10TestStructNS_6vectorIS2_EEEC2Ev
FNDA:80,_ZN3s215stackIiNS_6vectorIiEEEC2Ev
FNDA:71,_ZN3s215stackIiNS_6vectorIiEEEC2ERKSt16initializer_listIiE
FNDA:2,_ZN3s215stackIiNS_6vectorIiEEEC2ERKS3_
FNDA:2,_ZN3s215stackIiNS_6vectorIiEEEC2EOS3_
FNDA:1,_ZN3s215stackIZN25StackTest_CustomType_Test8TestBodyEvE10TestStructNS_6vectorIS2_EEED2Ev
FNDA:155,_ZN3s215stackIiNS_6vectorIiEEED2Ev
FNF:7
FNH:7
DA:12,81
DA:19,71
DA:20,71
DA:27,2
DA:34,2
DA:35,2
DA:41,156
LF:7
LH:7
end_of_record
TN:
SF:/root/project/containers/stack/s21_stack_insert_many.tpp
FN:15,28,_ZN3s215stackIiNS_6vectorIiEEE16insert_many_backIJEEEvDpOT_
FN:15,28,_ZN3s215stackIiNS_6vectorIiEEE16insert_many_backIJifsEEEvDpOT_
FN:15,28,_ZN3s215stackIiNS_6vectorIiEEE16insert_many_backIJiiEEEvDpOT_
FN:19,19,_ZZN3s215stackIiNS_6vectorIiEEE16insert_many_backIJEEEvDpOT_ENKUlS7_E_clIJEEEDaS7_
FN:19,19,_ZZN3s215stackIiNS_6vectorIiEEE16insert_many_backIJifsEEEvDpOT_ENKUlS7_E_clIJRiRfRsEEEDaS7_
FN:19,19,_ZZN3s215stackIiNS_6vectorIiEEE16insert_many_backIJiiEEEvDpOT_ENKUlS7_E_clIJRiSA_EEEDaS7_
FN:24,24,_ZZN3s215stackIiNS_6vectorIiEEE16insert_many_backIJEEEvDpOT_ENKUlS7_E0_clIJEEEDaS7_
FN:24,24,_ZZN3s215stackIiNS_6vectorIiEEE16insert_many_backIJifsEEEvDpOT_ENKUlS7_E0_clIJifsEEEDaS7_
FN:24,24,_ZZN3s215stackIiNS_6vectorIiEEE16insert_many_backIJiiEEEvDpOT_ENKUlS7_E0_clIJiiEEEDaS7_
FNDA:1,_ZN3s215stackIiNS_6vectorIiEEE16insert_many_backIJEEEvDpOT_
FNDA:1,_ZN3s215stackIiNS_6vectorIiEEE16insert_many_backIJifsEEEvDpOT_
FNDA:2,_ZN3s215stackIiNS_6vectorIiEEE16insert_many_backIJiiEEEvDpOT_
FNDA:1,_ZZN3s215stackIiNS_6vectorIiEEE16insert_many_backIJEEEvDpOT_ENKUlS7_E_clIJEEEDaS7_
FNDA:1,_ZZN3s215stackIiNS_6vectorIiEEE16insert_many_backIJifsEEEvDpOT_ENKUlS7_E_clIJRiRfRsEEEDaS7_
FNDA:2,_ZZN3s215stackIiNS_6vectorIiEEE16insert_many_backIJiiEEEvDpOT_ENKUlS7_E_clIJRiSA_EEEDaS7_
FNDA:1,_ZZN3s215stackIiNS_6vectorIiEEE16insert_many_backIJEEEvDpOT_ENKUlS7_E0_clIJEEEDaS7_
FNDA:1,_ZZN3s215stackIiNS_6vectorIiEEE16insert_many_backIJifsEEEvDpOT_ENKUlS7_E0_clIJifsEEEDaS7_
FNDA:2,_ZZN3s215stackIiNS_6vectorIiEEE16insert_many_backIJiiEEEvDpOT_ENKUlS7_E0_clIJiiEEEDaS7_
FNF:9
FNH:9
DA:15,4
DA:19,4
DA:20,4
DA:23,4
DA:24,11
DA:25,3
DA:27,4
DA:28,4
LF:8
LH:8
end_of_record
TN:
SF:/root/project/containers/stack/s21_stack_iterators.tpp
FN:13,15,_ZN3s215stackIiNS_6vectorIiEEE5beginEv
FN:22,24,_ZN3s215stackIiNS_6vectorIiEEE3endEv
FN:31,34,_ZNK3s215stackIiNS_6vectorIiEEE5beginEv
FN:41,43,_ZNK3s215stackIiNS_6vectorIiEEE3endEv
FNDA:4,_ZN3s215stackIiNS_6vectorIiEEE5beginEv
FNDA:3,_ZN3s215stackIiNS_6vectorIiEEE3endEv
FNDA:2,_ZNK3s215stackIiNS_6vectorIiEEE5beginEv
FNDA:2,_ZNK3s215stackIiNS_6vectorIiEEE3endEv
FNF:4
FNH:4
DA:13,4
DA:14,4
DA:22,3
DA:23,3
DA:31,2
DA:33,2
DA:41,2
DA:42,2
LF:8
LH:8
end_of_record
TN:
SF:/root/project/containers/stack/s21_stack_modifiers.tpp
FN:13,15,_ZN3s215stackIZN25StackTest_CustomType_Test8TestBodyEvE10TestStructNS_6vectorIS2_EEE4pushERKS2_
FN:13,15,_ZN3s215stackIiNS_6vectorIiEEE4pushERKi
FN:22,27,_ZN3s215stackIiNS_6vectorIiEEE3popEv
FN:34,36,_ZN3s215stackIiNS_6vectorIiEEE4swapERS3_
FNDA:2,_ZN3s215stackIZN25StackTest_CustomType_Test8TestBodyEvE10TestStructNS_6vectorIS2_EEE4pushERKS2_
FNDA:1000006,_ZN3s215stackIiNS_6vectorIiEEE4pushERKi
FNDA:15,_ZN3s215stackIiNS_6vectorIiEEE3popEv
FNDA:2,_ZN3s215stackIiNS_6vectorIiEEE4swapERS3_
FNF:4
FNH:4
DA:13,1000008
DA:14,1000008
DA:15,1000008
DA:22,15
DA:23,15
DA:24,1
DA:26,14
DA:27,14
DA:34,2
DA:35,2
DA:36,2
LF:11
LH:11
end_of_record
TN:
SF:/root/project/containers/stack/s21_stack_operators.tpp
FN:14,19,_ZN3s215stackIiNS_6vectorIiEEEaSERKS3_
FN:27,32,_ZN3s215stackIiNS_6vectorIiEEEaSEOS3_
FNDA:1,_ZN3s215stackIiNS_6vectorIiEEEaSERKS3_
FNDA:65,_ZN3s215stackIiNS_6vectorIiEEEaSEOS3_
FNF:2
FNH:2
DA:14,1
DA:15,1
DA:16,1
DA:18,1
DA:27,65
DA:28,65
DA:29,65
DA:31,65
LF:8
LH:8
end_of_record
TN:
SF:/root/project/containers/tree/tree.h
FNF:0
FNH:0
LF:0
LH:0
end_of_record
TN:
SF:/root/project/containers/tree/tree_constructors.tpp
FN:104,113,_ZN3s216RBTreeIicEaSEOS1_
FN:104,113,_ZN3s216RBTreeIiiEaSEOS1_
FN:104,113,_ZN3s216RBTreeIimEaSEOS1_
FN:122,133,_ZN3s216RBTreeIicEaSERKS1_
FN:122,133,_ZN3s216RBTreeIiiEaSERKS1_
FN:122,133,_ZN3s216RBTreeIimEaSERKS1_
FN:141,143,_ZNK3s216RBTreeIicE6cbeginEv
FN:141,143,_ZNK3s216RBTreeIimE6cbeginEv
FN:152,154,_ZNK3s216RBTreeIicE4cendEv
FN:152,154,_ZNK3s216RBTreeIimE4cendEv
FN:20,20,_ZN3s216RBTreeIiNSt7__cxx1112basic_stringIcSt11char_traitsIcESaIcEEEEC2Ev
FN:20,20,_ZN3s216RBTreeIicEC2Ev
FN:20,20,_ZN3s216RBTreeIiiEC2Ev
FN:20,20,_ZN3s216RBTreeIimEC2Ev
FN:28,33,_ZN3s216RBTreeIicEC2ERKSt16initializer_listISt4pairIKicEE
FN:41,47,_ZN3s216RBTreeIicEC2ERKS1_
FN:41,47,_ZN3s216RBTreeIiiEC2ERKS1_
FN:41,47,_ZN3s216RBTreeIimEC2ERKS1_
FN:55,59,_ZN3s216RBTreeIicEC2EOS1_
FN:55,59,_ZN3s216RBTreeIiiEC2EOS1_
FN:55,59,_ZN3s216RBTreeIimEC2EOS1_
FN:66,71,_ZN3s216RBTreeIiNSt7__cxx1112basic_stringIcSt11char_traitsIcESaIcEEEED0Ev
FN:66,71,_ZN3s216RBTreeIiNSt7__cxx1112basic_stringIcSt11char_traitsIcESaIcEEEED2Ev
FN:66,71,_ZN3s216RBTreeIicED0Ev
FN:66,71,_ZN3s216RBTreeIicED2Ev
FN:66,71,_ZN3s216RBTreeIiiED0Ev
FN:66,71,_ZN3s216RBTreeIiiED2Ev
FN:66,71,_ZN3s216RBTreeIimED0Ev
FN:66,71,_ZN3s216RBTreeIimED2Ev
FN:79,95,_ZN3s216RBTreeIiNSt7__cxx1112basic_stringIcSt11char_traitsIcESaIcEEEE15RecursiveDeleteEPNS7_10RBTreeNodeE
FN:79,95,_ZN3s216RBTreeIicE15RecursiveDeleteEPNS1_10RBTreeNodeE
FN:79,95,_ZN3s216RBTreeIiiE15RecursiveDeleteEPNS1_10RBTreeNodeE
FN:79,95,_ZN3s216RBTreeIimE15RecursiveDeleteEPNS1_10RBTreeNodeE
FNDA:22,_ZN3s216RBTreeIicEaSEOS1_
FNDA:43,_ZN3s216RBTreeIiiEaSEOS1_
FNDA:88,_ZN3s216RBTreeIimEaSEOS1_
FNDA:1,_ZN3s216RBTreeIicEaSERKS1_
FNDA:2,_ZN3s216RBTreeIiiEaSERKS1_
FNDA:1,_ZN3s216RBTreeIimEaSERKS1_
FNDA:4,_ZNK3s216RBTreeIicE6cbeginEv
FNDA:1,_ZNK3s216RBTreeIimE6cbeginEv
FNDA:3,_ZNK3s216RBTreeIicE4cendEv
FNDA:6,_ZNK3s216RBTreeIimE4cendEv
FNDA:5,_ZN3s216RBTreeIiNSt7__cxx1112basic_stringIcSt11char_traitsIcESaIcEEEEC2Ev
FNDA:110,_ZN3s216RBTreeIicEC2Ev
FNDA:116,_ZN3s216RBTreeIiiEC2Ev
FNDA:242,_ZN3s216RBTreeIimEC2Ev
FNDA:2,_ZN3s216RBTreeIicEC2ERKSt16initializer_listISt4pairIKicEE
FNDA:2,_ZN3s216RBTreeIicEC2ERKS1_
FNDA:2,_ZN3s216RBTreeIiiEC2ERKS1_
FNDA:2,_ZN3s216RBTreeIimEC2ERKS1_
FNDA:1,_ZN3s216RBTreeIicEC2EOS1_
FNDA:1,_ZN3s216RBTreeIiiEC2EOS1_
FNDA:1,_ZN3s216RBTreeIimEC2EOS1_
FNDA:0,_ZN3s216RBTreeIiNSt7__cxx1112basic_stringIcSt11char_traitsIcESaIcEEEED0Ev
FNDA:5,_ZN3s216RBTreeIiNSt7__cxx1112basic_stringIcSt11char_traitsIcESaIcEEEED2Ev
FNDA:0,_ZN3s216RBTreeIicED0Ev
FNDA:111,_ZN3s216RBTreeIicED2Ev
FNDA:0,_ZN3s216RBTreeIiiED0Ev
FNDA:117,_ZN3s216RBTreeIiiED2Ev
FNDA:0,_ZN3s216RBTreeIimED0Ev
FNDA:243,_ZN3s216RBTreeIimED2Ev
FNDA:14,_ZN3s216RBTreeIiNSt7__cxx1112basic_stringIcSt11char_traitsIcESaIcEEEE15RecursiveDeleteEPNS7_10RBTreeNodeE
FNDA:355,_ZN3s216RBTreeIicE15RecursiveDeleteEPNS1_10RBTreeNodeE
FNDA:176,_ZN3s216RBTreeIiiE15RecursiveDeleteEPNS1_10RBTreeNodeE
FNDA:0,_ZN3s216RBTreeIimE15RecursiveDeleteEPNS1_10RBTreeNodeE
FNF:33
FNH:28
DA:20,473
DA:28,2
DA:29,2
DA:30,8
DA:31,6
DA:33,2
DA:41,6
DA:42,6
DA:43,5
DA:44,5
DA:45,5
DA:47,6
DA:55,3
DA:56,3
DA:57,3
DA:58,3
DA:59,3
DA:66,476
DA:67,476
DA:68,104
DA:69,104
DA:71,476
DA:79,545
DA:80,545
DA:82,545
DA:83,199
DA:84,199
DA:87,545
DA:88,242
DA:89,242
DA:92,545
DA:93,545
DA:94,545
DA:104,153
DA:105,153
DA:106,153
DA:107,153
DA:108,153
DA:109,153
DA:110,153
DA:112,153
DA:122,4
DA:123,4
DA:124,4
DA:125,4
DA:126,2
DA:127,3
DA:128,3
DA:129,3
DA:132,4
DA:141,5
DA:142,5
DA:152,9
DA:153,9
LF:54
LH:54
end_of_record
TN:
SF:/root/project/containers/tree/tree_iterator.tpp
FN:117,119,_ZN3s216RBTreeIicE5beginEv
FN:117,119,_ZN3s216RBTreeIiiE5beginEv
FN:126,128,_ZN3s216RBTreeIiNSt7__cxx1112basic_stringIcSt11char_traitsIcESaIcEEEE3endEv
FN:126,128,_ZN3s216RBTreeIicE3endEv
FN:126,128,_ZN3s216RBTreeIiiE3endEv
FN:126,128,_ZN3s216RBTreeIimE3endEv
FN:13,14,_ZN3s216RBTreeIicE8IteratorC2Ev
FN:13,14,_ZN3s216RBTreeIimE8IteratorC2Ev
FN:145,147,_ZNK3s216RBTreeIicE3endEv
FN:145,147,_ZNK3s216RBTreeIimE3endEv
FN:154,157,_ZNK3s216RBTreeIicE13ConstIteratordeEv
FN:175,178,_ZNK3s216RBTreeIicE13ConstIteratoreqERKS2_
FN:187,187,_ZN3s216RBTreeIiiE11SetIteratorC2EPNS1_10RBTreeNodeE
FN:194,195,_ZN3s216RBTreeIiiE11SetIteratorC2ERKS2_
FN:203,205,_ZNK3s216RBTreeIiiE11SetIteratordeEv
FN:214,227,_ZN3s216RBTreeIiiE11SetIteratorppEv
FN:22,23,_ZN3s216RBTreeIiNSt7__cxx1112basic_stringIcSt11char_traitsIcESaIcEEEE8IteratorC2EPNS7_10RBTreeNodeESA_
FN:22,23,_ZN3s216RBTreeIicE8IteratorC2EPNS1_10RBTreeNodeES4_
FN:22,23,_ZN3s216RBTreeIiiE8IteratorC2EPNS1_10RBTreeNodeES4_
FN:22,23,_ZN3s216RBTreeIimE8IteratorC2EPNS1_10RBTreeNodeES4_
FN:235,238,_ZNK3s216RBTreeIiiE11SetIteratoreqERKS2_
FN:246,249,_ZNK3s216RBTreeIiiE11SetIteratorneERKS2_
FN:258,259,_ZN3s216RBTreeIiiE16SetConstIteratorC2EPKNS1_10RBTreeNodeE
FN:275,277,_ZNK3s216RBTreeIiiE16SetConstIteratordeEv
FN:330,332,_ZN3s216RBTreeIiiE9set_beginEv
FN:340,342,_ZN3s216RBTreeIiiE7set_endEv
FN:350,353,_ZNK3s216RBTreeIiiE10set_cbeginEv
FN:373,376,_ZN3s216RBTreeIiiE8set_findERKi
FN:39,40,_ZN3s216RBTreeIicE13ConstIteratorC2EPNS1_10RBTreeNodeE
FN:39,40,_ZN3s216RBTreeIimE13ConstIteratorC2EPNS1_10RBTreeNodeE
FN:49,66,_ZN3s216RBTreeIiNSt7__cxx1112basic_stringIcSt11char_traitsIcESaIcEEEE8IteratorppEv
FN:49,66,_ZN3s216RBTreeIicE8IteratorppEv
FN:49,66,_ZN3s216RBTreeIiiE8IteratorppEv
FN:49,66,_ZN3s216RBTreeIimE8IteratorppEv
FN:74,76,_ZNK3s216RBTreeIiNSt7__cxx1112basic_stringIcSt11char_traitsIcESaIcEEEE8IteratorneERKS8_
FN:74,76,_ZNK3s216RBTreeIicE8IteratorneERKS2_
FN:74,76,_ZNK3s216RBTreeIiiE8IteratorneERKS2_
FN:74,76,_ZNK3s216RBTreeIimE8IteratorneERKS2_
FN:94,96,_ZNK3s216RBTreeIicE8IteratordeEv
FN:94,96,_ZNK3s216RBTreeIiiE8IteratordeEv
FNDA:1,_ZN3s216RBTreeIicE5beginEv
FNDA:1,_ZN3s216RBTreeIiiE5beginEv
FNDA:32,_ZN3s216RBTreeIiNSt7__cxx1112basic_stringIcSt11char_traitsIcESaIcEEEE3endEv
FNDA:105,_ZN3s216RBTreeIicE3endEv
FNDA:63,_ZN3s216RBTreeIiiE3endEv
FNDA:46389,_ZN3s216RBTreeIimE3endEv
FNDA:16,_ZN3s216RBTreeIicE8IteratorC2Ev
FNDA:45,_ZN3s216RBTreeIimE8IteratorC2Ev
FNDA:2,_ZNK3s216RBTreeIicE3endEv
FNDA:13,_ZNK3s216RBTreeIimE3endEv
FNDA:4,_ZNK3s216RBTreeIicE13ConstIteratordeEv
FNDA:2,_ZNK3s216RBTreeIicE13ConstIteratoreqERKS2_
FNDA:159,_ZN3s216RBTreeIiiE11SetIteratorC2EPNS1_10RBTreeNodeE
FNDA:114,_ZN3s216RBTreeIiiE11SetIteratorC2ERKS2_
FNDA:37,_ZNK3s216RBTreeIiiE11SetIteratordeEv
FNDA:29,_ZN3s216RBTreeIiiE11SetIteratorppEv
FNDA:78,_ZN3s216RBTreeIiNSt7__cxx1112basic_stringIcSt11char_traitsIcESaIcEEEE8IteratorC2EPNS7_10RBTreeNodeESA_
FNDA:253,_ZN3s216RBTreeIicE8IteratorC2EPNS1_10RBTreeNodeES4_
FNDA:136,_ZN3s216RBTreeIiiE8IteratorC2EPNS1_10RBTreeNodeES4_
FNDA:129127,_ZN3s216RBTreeIimE8IteratorC2EPNS1_10RBTreeNodeES4_
FNDA:20,_ZNK3s216RBTreeIiiE11SetIteratoreqERKS2_
FNDA:16,_ZNK3s216RBTreeIiiE11SetIteratorneERKS2_
FNDA:1,_ZN3s216RBTreeIiiE16SetConstIteratorC2EPKNS1_10RBTreeNodeE
FNDA:1,_ZNK3s216RBTreeIiiE16SetConstIteratordeEv
FNDA:11,_ZN3s216RBTreeIiiE9set_beginEv
FNDA:21,_ZN3s216RBTreeIiiE7set_endEv
FNDA:1,_ZNK3s216RBTreeIiiE10set_cbeginEv
FNDA:115,_ZN3s216RBTreeIiiE8set_findERKi
FNDA:19,_ZN3s216RBTreeIicE13ConstIteratorC2EPNS1_10RBTreeNodeE
FNDA:46,_ZN3s216RBTreeIimE13ConstIteratorC2EPNS1_10RBTreeNodeE
FNDA:15,_ZN3s216RBTreeIiNSt7__cxx1112basic_stringIcSt11char_traitsIcESaIcEEEE8IteratorppEv
FNDA:13,_ZN3s216RBTreeIicE8IteratorppEv
FNDA:14,_ZN3s216RBTreeIiiE8IteratorppEv
FNDA:51,_ZN3s216RBTreeIimE8IteratorppEv
FNDA:27,_ZNK3s216RBTreeIiNSt7__cxx1112basic_stringIcSt11char_traitsIcESaIcEEEE8IteratorneERKS8_
FNDA:107,_ZNK3s216RBTreeIicE8IteratorneERKS2_
FNDA:63,_ZNK3s216RBTreeIiiE8IteratorneERKS2_
FNDA:43000,_ZNK3s216RBTreeIimE8IteratorneERKS2_
FNDA:2,_ZNK3s216RBTreeIicE8IteratordeEv
FNDA:2,_ZNK3s216RBTreeIiiE8IteratordeEv
FNF:40
FNH:40
DA:13,61
DA:14,61
DA:22,129594
DA:23,129594
DA:39,65
DA:40,65
DA:49,93
DA:50,93
DA:52,93
DA:53,35
DA:54,48
DA:55,13
DA:58,58
DA:59,85
DA:60,27
DA:61,27
DA:63,58
DA:65,93
DA:74,43197
DA:75,43197
DA:94,4
DA:95,4
DA:117,2
DA:118,2
DA:126,46589
DA:127,46589
DA:145,15
DA:146,15
DA:154,4
DA:156,4
DA:175,2
DA:177,2
DA:187,159
DA:194,114
DA:195,114
DA:203,37
DA:204,37
DA:214,29
DA:215,29
DA:216,14
DA:217,14
DA:219,15
DA:220,27
DA:221,12
DA:222,12
DA:224,15
DA:226,29
DA:235,20
DA:237,20
DA:246,16
DA:248,16
DA:258,1
DA:259,1
DA:275,1
DA:276,1
DA:330,11
DA:331,11
DA:340,21
DA:341,21
DA:350,1
DA:352,1
DA:373,115
DA:375,115
LF:63
LH:63
end_of_record
TN:
SF:/root/project/containers/tree/tree_node.tpp
FN:18,25,_ZN3s216RBTreeIiNSt7__cxx1112basic_stringIcSt11char_traitsIcESaIcEEEE10RBTreeNodeC2EiS6_NS_5ColorE
FN:18,25,_ZN3s216RBTreeIicE10RBTreeNodeC2EicNS_5ColorE
FN:18,25,_ZN3s216RBTreeIiiE10RBTreeNodeC2EiiNS_5ColorE
FN:18,25,_ZN3s216RBTreeIimE10RBTreeNodeC2EimNS_5ColorE
FNDA:19,_ZN3s216RBTreeIiNSt7__cxx1112basic_stringIcSt11char_traitsIcESaIcEEEE10RBTreeNodeC2EiS6_NS_5ColorE
FNDA:375,_ZN3s216RBTreeIicE10RBTreeNodeC2EicNS_5ColorE
FNDA:183,_ZN3s216RBTreeIiiE10RBTreeNodeC2EiiNS_5ColorE
FNDA:3417,_ZN3s216RBTreeIimE10RBTreeNodeC2EimNS_5ColorE
FNF:4
FNH:4
DA:18,3994
DA:19,3994
DA:20,3994
DA:21,3994
DA:22,3994
DA:23,3994
DA:24,3994
DA:25,3994
LF:8
LH:8
end_of_record
TN:
SF:/root/project/containers/tree/tree_operations.tpp
FN:121,147,_ZN3s216RBTreeIiNSt7__cxx1112basic_stringIcSt11char_traitsIcESaIcEEEE6insertERKiRKS6_
FN:121,147,_ZN3s216RBTreeIicE6insertERKiRKc
FN:121,147,_ZN3s216RBTreeIiiE6insertERKiS3_
FN:121,147,_ZN3s216RBTreeIimE6insertERKiRKm
FN:13,15,_ZNK3s216RBTreeIiNSt7__cxx1112basic_stringIcSt11char_traitsIcESaIcEEEE7GetRootEv
FN:13,15,_ZNK3s216RBTreeIicE7GetRootEv
FN:13,15,_ZNK3s216RBTreeIiiE7GetRootEv
FN:13,15,_ZNK3s216RBTreeIimE7GetRootEv
FN:154,163,_ZN3s216RBTreeIiNSt7__cxx1112basic_stringIcSt11char_traitsIcESaIcEEEE6removeERKi
FN:154,163,_ZN3s216RBTreeIicE6removeERKi
FN:154,163,_ZN3s216RBTreeIiiE6removeERKi
FN:154,163,_ZN3s216RBTreeIimE6removeERKi
FN:172,185,_ZNK3s216RBTreeIiNSt7__cxx1112basic_stringIcSt11char_traitsIcESaIcEEEE8findNodeERKi
FN:172,185,_ZNK3s216RBTreeIicE8findNodeERKi
FN:172,185,_ZNK3s216RBTreeIiiE8findNodeERKi
FN:172,185,_ZNK3s216RBTreeIimE8findNodeERKi
FN:194,200,_ZNK3s216RBTreeIiNSt7__cxx1112basic_stringIcSt11char_traitsIcESaIcEEEE6GetMinEPNS7_10RBTreeNodeE
FN:194,200,_ZNK3s216RBTreeIicE6GetMinEPNS1_10RBTreeNodeE
FN:194,200,_ZNK3s216RBTreeIiiE6GetMinEPNS1_10RBTreeNodeE
FN:194,200,_ZNK3s216RBTreeIimE6GetMinEPNS1_10RBTreeNodeE
FN:211,248,_ZN3s216RBTreeIiNSt7__cxx1112basic_stringIcSt11char_traitsIcESaIcEEEE15RecursiveDeleteEPNS7_10RBTreeNodeERKi
FN:211,248,_ZN3s216RBTreeIicE15RecursiveDeleteEPNS1_10RBTreeNodeERKi
FN:211,248,_ZN3s216RBTreeIiiE15RecursiveDeleteEPNS1_10RBTreeNodeERKi
FN:211,248,_ZN3s216RBTreeIimE15RecursiveDeleteEPNS1_10RBTreeNodeERKi
FN:24,40,_ZN3s216RBTreeIiNSt7__cxx1112basic_stringIcSt11char_traitsIcESaIcEEEE10leftRotateEPNS7_10RBTreeNodeE
FN:24,40,_ZN3s216RBTreeIicE10leftRotateEPNS1_10RBTreeNodeE
FN:24,40,_ZN3s216RBTreeIiiE10leftRotateEPNS1_10RBTreeNodeE
FN:24,40,_ZN3s216RBTreeIimE10leftRotateEPNS1_10RBTreeNodeE
FN:49,69,_ZN3s216RBTreeIiNSt7__cxx1112basic_stringIcSt11char_traitsIcESaIcEEEE11rightRotateEPNS7_10RBTreeNodeE
FN:49,69,_ZN3s216RBTreeIicE11rightRotateEPNS1_10RBTreeNodeE
FN:49,69,_ZN3s216RBTreeIiiE11rightRotateEPNS1_10RBTreeNodeE
FN:49,69,_ZN3s216RBTreeIimE11rightRotateEPNS1_10RBTreeNodeE
FN:78,111,_ZN3s216RBTreeIiNSt7__cxx1112basic_stringIcSt11char_traitsIcESaIcEEEE11insertFixupEPNS7_10RBTreeNodeE
FN:78,111,_ZN3s216RBTreeIicE11insertFixupEPNS1_10RBTreeNodeE
FN:78,111,_ZN3s216RBTreeIiiE11insertFixupEPNS1_10RBTreeNodeE
FN:78,111,_ZN3s216RBTreeIimE11insertFixupEPNS1_10RBTreeNodeE
FNDA:19,_ZN3s216RBTreeIiNSt7__cxx1112basic_stringIcSt11char_traitsIcESaIcEEEE6insertERKiRKS6_
FNDA:372,_ZN3s216RBTreeIicE6insertERKiRKc
FNDA:169,_ZN3s216RBTreeIiiE6insertERKiS3_
FNDA:3402,_ZN3s216RBTreeIimE6insertERKiRKm
FNDA:4,_ZNK3s216RBTreeIiNSt7__cxx1112basic_stringIcSt11char_traitsIcESaIcEEEE7GetRootEv
FNDA:26,_ZNK3s216RBTreeIicE7GetRootEv
FNDA:4,_ZNK3s216RBTreeIiiE7GetRootEv
FNDA:17,_ZNK3s216RBTreeIimE7GetRootEv
FNDA:5,_ZN3s216RBTreeIiNSt7__cxx1112basic_stringIcSt11char_traitsIcESaIcEEEE6removeERKi
FNDA:12,_ZN3s216RBTreeIicE6removeERKi
FNDA:1,_ZN3s216RBTreeIiiE6removeERKi
FNDA:1,_ZN3s216RBTreeIimE6removeERKi
FNDA:79,_ZNK3s216RBTreeIiNSt7__cxx1112basic_stringIcSt11char_traitsIcESaIcEEEE8findNodeERKi
FNDA:622,_ZNK3s216RBTreeIicE8findNodeERKi
FNDA:534,_ZNK3s216RBTreeIiiE8findNodeERKi
FNDA:49820,_ZNK3s216RBTreeIimE8findNodeERKi
FNDA:5,_ZNK3s216RBTreeIiNSt7__cxx1112basic_stringIcSt11char_traitsIcESaIcEEEE6GetMinEPNS7_10RBTreeNodeE
FNDA:14,_ZNK3s216RBTreeIicE6GetMinEPNS1_10RBTreeNodeE
FNDA:18,_ZNK3s216RBTreeIiiE6GetMinEPNS1_10RBTreeNodeE
FNDA:18,_ZNK3s216RBTreeIimE6GetMinEPNS1_10RBTreeNodeE
FNDA:8,_ZN3s216RBTreeIiNSt7__cxx1112basic_stringIcSt11char_traitsIcESaIcEEEE15RecursiveDeleteEPNS7_10RBTreeNodeERKi
FNDA:27,_ZN3s216RBTreeIicE15RecursiveDeleteEPNS1_10RBTreeNodeERKi
FNDA:2,_ZN3s216RBTreeIiiE15RecursiveDeleteEPNS1_10RBTreeNodeERKi
FNDA:2,_ZN3s216RBTreeIimE15RecursiveDeleteEPNS1_10RBTreeNodeERKi
FNDA:5,_ZN3s216RBTreeIiNSt7__cxx1112basic_stringIcSt11char_traitsIcESaIcEEEE10leftRotateEPNS7_10RBTreeNodeE
FNDA:207,_ZN3s216RBTreeIicE10leftRotateEPNS1_10RBTreeNodeE
FNDA:47,_ZN3s216RBTreeIiiE10leftRotateEPNS1_10RBTreeNodeE
FNDA:2821,_ZN3s216RBTreeIimE10leftRotateEPNS1_10RBTreeNodeE
FNDA:0,_ZN3s216RBTreeIiNSt7__cxx1112basic_stringIcSt11char_traitsIcESaIcEEEE11rightRotateEPNS7_10RBTreeNodeE
FNDA:3,_ZN3s216RBTreeIicE11rightRotateEPNS1_10RBTreeNodeE
FNDA:0,_ZN3s216RBTreeIiiE11rightRotateEPNS1_10RBTreeNodeE
FNDA:1,_ZN3s216RBTreeIimE11rightRotateEPNS1_10RBTreeNodeE
FNDA:19,_ZN3s216RBTreeIiNSt7__cxx1112basic_stringIcSt11char_traitsIcESaIcEEEE11insertFixupEPNS7_10RBTreeNodeE
FNDA:372,_ZN3s216RBTreeIicE11insertFixupEPNS1_10RBTreeNodeE
FNDA:169,_ZN3s216RBTreeIiiE11insertFixupEPNS1_10RBTreeNodeE
FNDA:3402,_ZN3s216RBTreeIimE11insertFixupEPNS1_10RBTreeNodeE
FNF:36
FNH:34
DA:13,51
DA:14,51
DA:24,3080
DA:25,3080
DA:26,3080
DA:27,3080
DA:28,1281
DA:30,3080
DA:31,3080
DA:32,325
DA:33,2755
DA:34,2
DA:36,2753
DA:38,3080
DA:39,3080
DA:40,3080
DA:49,4
DA:50,4
DA:51,4
DA:53,4
DA:54,0
DA:57,4
DA:59,4
DA:60,3
DA:61,1
DA:62,0
DA:64,1
DA:67,4
DA:68,4
DA:69,4
DA:78,3962
DA:79,9946
DA:80,5984
DA:81,14
DA:82,14
DA:83,11
DA:84,11
DA:85,11
DA:86,11
DA:88,3
DA:89,2
DA:90,2
DA:92,3
DA:93,3
DA:94,3
DA:97,5970
DA:98,5970
DA:99,2892
DA:100,2892
DA:101,2892
DA:102,2892
DA:104,3078
DA:105,3078
DA:106,3078
DA:110,3962
DA:111,3962
DA:121,3962
DA:122,3962
DA:123,3962
DA:124,3962
DA:125,3962
DA:127,30847
DA:128,26885
DA:129,26885
DA:130,50
DA:132,26835
DA:136,3962
DA:137,3962
DA:138,232
DA:139,3730
DA:140,32
DA:142,3698
DA:145,3962
DA:146,3962
DA:154,19
DA:155,19
DA:156,19
DA:158,19
DA:159,19
DA:160,14
DA:161,14
DA:172,51055
DA:174,51055
DA:175,337810
DA:176,326732
DA:177,68197
DA:178,258535
DA:179,218558
DA:181,39977
DA:184,11078
DA:194,55
DA:196,102
DA:197,47
DA:199,55
DA:211,39
DA:213,39
DA:215,39
DA:216,11
DA:217,11
DA:218,28
DA:219,4
DA:220,4
DA:222,24
DA:223,16
DA:224,16
DA:225,16
DA:226,8
DA:227,4
DA:228,4
DA:229,4
DA:230,4
DA:231,4
DA:232,4
DA:233,0
DA:234,0
DA:235,0
DA:236,0
DA:237,0
DA:240,4
DA:241,4
DA:242,4
DA:243,4
DA:244,4
DA:247,19
LF:124
LH:117
end_of_record
TN:
SF:/root/project/containers/tree/tree_utility.tpp
FN:107,117,_ZN3s216RBTreeIicE5mergeERS1_
FN:107,117,_ZN3s216RBTreeIiiE5mergeERS1_
FN:125,127,_ZNK3s216RBTreeIiNSt7__cxx1112basic_stringIcSt11char_traitsIcESaIcEEEE8containsERKi
FN:125,127,_ZNK3s216RBTreeIicE8containsERKi
FN:125,127,_ZNK3s216RBTreeIiiE8containsERKi
FN:125,127,_ZNK3s216RBTreeIimE8containsERKi
FN:135,138,_ZN3s216RBTreeIiNSt7__cxx1112basic_stringIcSt11char_traitsIcESaIcEEEE4findERKi
FN:135,138,_ZN3s216RBTreeIicE4findERKi
FN:135,138,_ZN3s216RBTreeIiiE4findERKi
FN:135,138,_ZN3s216RBTreeIimE4findERKi
FN:146,149,_ZNK3s216RBTreeIicE4findERKi
FN:146,149,_ZNK3s216RBTreeIimE4findERKi
FN:156,161,_ZNK3s216RBTreeIicE8max_sizeEv
FN:156,161,_ZNK3s216RBTreeIiiE8max_sizeEv
FN:156,161,_ZNK3s216RBTreeIimE8max_sizeEv
FN:27,29,_ZNK3s216RBTreeIiNSt7__cxx1112basic_stringIcSt11char_traitsIcESaIcEEEE5emptyEv
FN:27,29,_ZNK3s216RBTreeIicE5emptyEv
FN:27,29,_ZNK3s216RBTreeIiiE5emptyEv
FN:36,39,_ZNK3s216RBTreeIiNSt7__cxx1112basic_stringIcSt11char_traitsIcESaIcEEEE4sizeEv
FN:36,39,_ZNK3s216RBTreeIicE4sizeEv
FN:36,39,_ZNK3s216RBTreeIiiE4sizeEv
FN:45,49,_ZN3s216RBTreeIicE5clearEv
FN:45,49,_ZN3s216RBTreeIiiE5clearEv
FN:45,49,_ZN3s216RBTreeIimE5clearEv
FN:57,63,_ZN3s216RBTreeIicE13deleteSubtreeEPNS1_10RBTreeNodeE
FN:57,63,_ZN3s216RBTreeIiiE13deleteSubtreeEPNS1_10RBTreeNodeE
FN:57,63,_ZN3s216RBTreeIimE13deleteSubtreeEPNS1_10RBTreeNodeE
FN:72,88,_ZN3s216RBTreeIicE9copyNodesEPNS1_10RBTreeNodeES3_
FN:72,88,_ZN3s216RBTreeIiiE9copyNodesEPNS1_10RBTreeNodeES3_
FN:72,88,_ZN3s216RBTreeIimE9copyNodesEPNS1_10RBTreeNodeES3_
FN:96,99,_ZN3s216RBTreeIicE4swapERS1_
FN:96,99,_ZN3s216RBTreeIiiE4swapERS1_
FN:96,99,_ZN3s216RBTreeIimE4swapERS1_
FNDA:1,_ZN3s216RBTreeIicE5mergeERS1_
FNDA:1,_ZN3s216RBTreeIiiE5mergeERS1_
FNDA:47,_ZNK3s216RBTreeIiNSt7__cxx1112basic_stringIcSt11char_traitsIcESaIcEEEE8containsERKi
FNDA:502,_ZNK3s216RBTreeIicE8containsERKi
FNDA:358,_ZNK3s216RBTreeIiiE8containsERKi
FNDA:6819,_ZNK3s216RBTreeIimE8containsERKi
FNDA:27,_ZN3s216RBTreeIiNSt7__cxx1112basic_stringIcSt11char_traitsIcESaIcEEEE4findERKi
FNDA:101,_ZN3s216RBTreeIicE4findERKi
FNDA:60,_ZN3s216RBTreeIiiE4findERKi
FNDA:42987,_ZN3s216RBTreeIimE4findERKi
FNDA:3,_ZNK3s216RBTreeIicE4findERKi
FNDA:13,_ZNK3s216RBTreeIimE4findERKi
FNDA:1,_ZNK3s216RBTreeIicE8max_sizeEv
FNDA:1,_ZNK3s216RBTreeIiiE8max_sizeEv
FNDA:1,_ZNK3s216RBTreeIimE8max_sizeEv
FNDA:1,_ZNK3s216RBTreeIiNSt7__cxx1112basic_stringIcSt11char_traitsIcESaIcEEEE5emptyEv
FNDA:10,_ZNK3s216RBTreeIicE5emptyEv
FNDA:5,_ZNK3s216RBTreeIiiE5emptyEv
FNDA:7,_ZNK3s216RBTreeIiNSt7__cxx1112basic_stringIcSt11char_traitsIcESaIcEEEE4sizeEv
FNDA:24,_ZNK3s216RBTreeIicE4sizeEv
FNDA:28,_ZNK3s216RBTreeIiiE4sizeEv
FNDA:25,_ZN3s216RBTreeIicE5clearEv
FNDA:47,_ZN3s216RBTreeIiiE5clearEv
FNDA:215,_ZN3s216RBTreeIimE5clearEv
FNDA:39,_ZN3s216RBTreeIicE13deleteSubtreeEPNS1_10RBTreeNodeE
FNDA:59,_ZN3s216RBTreeIiiE13deleteSubtreeEPNS1_10RBTreeNodeE
FNDA:7047,_ZN3s216RBTreeIimE13deleteSubtreeEPNS1_10RBTreeNodeE
FNDA:3,_ZN3s216RBTreeIicE9copyNodesEPNS1_10RBTreeNodeES3_
FNDA:14,_ZN3s216RBTreeIiiE9copyNodesEPNS1_10RBTreeNodeES3_
FNDA:15,_ZN3s216RBTreeIimE9copyNodesEPNS1_10RBTreeNodeES3_
FNDA:2,_ZN3s216RBTreeIicE4swapERS1_
FNDA:1,_ZN3s216RBTreeIiiE4swapERS1_
FNDA:1,_ZN3s216RBTreeIimE4swapERS1_
FNF:33
FNH:33
DA:27,16
DA:28,16
DA:36,59
DA:38,59
DA:45,287
DA:46,287
DA:47,287
DA:48,287
DA:49,287
DA:57,7145
DA:58,7145
DA:59,3429
DA:60,3429
DA:61,3429
DA:63,7145
DA:72,32
DA:73,32
DA:75,32
DA:76,12
DA:77,11
DA:78,11
DA:79,11
DA:82,32
DA:83,12
DA:84,13
DA:85,13
DA:86,13
DA:96,4
DA:97,4
DA:98,4
DA:99,4
DA:107,2
DA:108,2
DA:109,2
DA:110,6
DA:111,4
DA:112,4
DA:113,4
DA:115,2
DA:117,2
DA:125,7726
DA:126,7726
DA:135,43175
DA:136,43175
DA:137,43175
DA:146,16
DA:148,16
DA:156,3
DA:158,3
DA:160,3
LF:50
LH:50
end_of_record
TN:
SF:/root/project/containers/vector/s21_vector.h
FN:414,414,_ZN3s216vectorIiE19VectorConstIteratorC2EPi
FNDA:15,_ZN3s216vectorIiE19VectorConstIteratorC2EPi
FNF:1
FNH:1
DA:414,15
LF:1
LH:1
end_of_record
TN:
SF:/root/project/containers/vector/s21_vector_const_iterators.tpp
FN:118,121,_ZN3s216vectorIiE19VectorConstIteratormiERKS2_
FN:130,133,_ZNK3s216vectorIiE19VectorConstIteratoreqERKS2_
FN:142,145,_ZNK3s216vectorIiE19VectorConstIteratorneERKS2_
FN:153,154,_ZN3s216vectorIiE19VectorConstIteratorC2ERKNS1_14VectorIteratorE
FN:16,19,_ZNK3s216vectorIiE19VectorConstIteratordeEv
FN:162,164,_ZNK3s216vectorIiE19VectorConstIterator7get_ptrEv
FN:30,33,_ZN3s216vectorIiE19VectorConstIteratorppEv
FNDA:5,_ZN3s216vectorIiE19VectorConstIteratormiERKS2_
FNDA:3,_ZNK3s216vectorIiE19VectorConstIteratoreqERKS2_
FNDA:13,_ZNK3s216vectorIiE19VectorConstIteratorneERKS2_
FNDA:3,_ZN3s216vectorIiE19VectorConstIteratorC2ERKNS1_14VectorIteratorE
FNDA:30,_ZNK3s216vectorIiE19VectorConstIteratordeEv
FNDA:1,_ZNK3s216vectorIiE19VectorConstIterator7get_ptrEv
FNDA:29,_ZN3s216vectorIiE19VectorConstIteratorppEv
FNF:7
FNH:7
DA:16,30
DA:18,30
DA:30,29
DA:31,29
DA:32,29
DA:118,5
DA:120,5
DA:130,3
DA:132,3
DA:142,13
DA:144,13
DA:153,3
DA:154,3
DA:162,1
DA:163,1
LF:15
LH:15
end_of_record
TN:
SF:/root/project/containers/vector/s21_vector_constructors.tpp
FN:107,118,_ZN3s216vectorIiEaSEOS1_
FN:128,137,_ZN3s216vectorIiEaSERKS1_
FN:16,21,_ZN3s216vectorIiEC2ERKSt16initializer_listIiE
FN:30,35,_ZN3s216vectorIiEC2Em
FN:45,52,_ZN3s216vectorIiEC2EmRKi
FN:61,66,_ZN3s216vectorIiEC2ERKS1_
FN:75,80,_ZN3s216vectorIiEC2EOS1_
FN:88,88,_ZN3s216vectorISt4pairINS_3mapIicE11MapIteratorEbEEC2Ev
FN:88,88,_ZN3s216vectorISt4pairINS_6RBTreeIiiE11SetIteratorEbEEC2Ev
FN:88,88,_ZN3s216vectorISt4pairINS_8multisetIiE8IteratorEbEEC2Ev
FN:88,88,_ZN3s216vectorIZN25StackTest_CustomType_Test8TestBodyEvE10TestStructEC2Ev
FN:88,88,_ZN3s216vectorIiEC2Ev
FN:95,97,_ZN3s216vectorISt4pairINS_3mapIicE11MapIteratorEbEED2Ev
FN:95,97,_ZN3s216vectorISt4pairINS_6RBTreeIiiE11SetIteratorEbEED2Ev
FN:95,97,_ZN3s216vectorISt4pairINS_8multisetIiE8IteratorEbEED2Ev
FN:95,97,_ZN3s216vectorIZN25StackTest_CustomType_Test8TestBodyEvE10TestStructED2Ev
FN:95,97,_ZN3s216vectorIiED2Ev
FNDA:127,_ZN3s216vectorIiEaSEOS1_
FNDA:2,_ZN3s216vectorIiEaSERKS1_
FNDA:144,_ZN3s216vectorIiEC2ERKSt16initializer_listIiE
FNDA:1,_ZN3s216vectorIiEC2Em
FNDA:2,_ZN3s216vectorIiEC2EmRKi
FNDA:3,_ZN3s216vectorIiEC2ERKS1_
FNDA:3,_ZN3s216vectorIiEC2EOS1_
FNDA:3,_ZN3s216vectorISt4pairINS_3mapIicE11MapIteratorEbEEC2Ev
FNDA:3,_ZN3s216vectorISt4pairINS_6RBTreeIiiE11SetIteratorEbEEC2Ev
FNDA:3,_ZN3s216vectorISt4pairINS_8multisetIiE8IteratorEbEEC2Ev
FNDA:1,_ZN3s216vectorIZN25StackTest_CustomType_Test8TestBodyEvE10TestStructEC2Ev
FNDA:147,_ZN3s216vectorIiEC2Ev
FNDA:3,_ZN3s216vectorISt4pairINS_3mapIicE11MapIteratorEbEED2Ev
FNDA:3,_ZN3s216vectorISt4pairINS_6RBTreeIiiE11SetIteratorEbEED2Ev
FNDA:3,_ZN3s216vectorISt4pairINS_8multisetIiE8IteratorEbEED2Ev
FNDA:1,_ZN3s216vectorIZN25StackTest_CustomType_Test8TestBodyEvE10TestStructED2Ev
FNDA:300,_ZN3s216vectorIiED2Ev
FNF:17
FNH:17
DA:16,144
DA:17,144
DA:18,144
DA:19,144
DA:20,144
DA:21,144
DA:30,1
DA:31,1
DA:32,1
DA:33,1
DA:34,1
DA:35,1
DA:45,2
DA:46,2
DA:47,2
DA:48,2
DA:49,5
DA:50,3
DA:52,2
DA:61,3
DA:62,3
DA:63,3
DA:64,3
DA:65,3
DA:66,3
DA:75,3
DA:76,3
DA:77,3
DA:78,3
DA:79,3
DA:80,3
DA:88,166
DA:95,310
DA:96,310
DA:97,310
DA:107,127
DA:108,127
DA:109,127
DA:110,127
DA:111,127
DA:112,127
DA:113,127
DA:114,127
DA:115,127
DA:117,127
DA:128,2
DA:129,2
DA:130,2
DA:131,2
DA:132,2
DA:133,2
DA:134,2
DA:136,2
LF:53
LH:53
end_of_record
TN:
SF:/root/project/containers/vector/s21_vector_emplace.tpp
FN:21,25,_ZN3s216vectorIiE7emplaceIJiEEENS1_14VectorIteratorENS1_19VectorConstIteratorEDpOT_
FN:39,44,_ZN3s216vectorIiE6assignIN9__gnu_cxx17__normal_iteratorIPiSt6vectorIiSaIiEEEEEEvT_SA_
FNDA:1,_ZN3s216vectorIiE7emplaceIJiEEENS1_14VectorIteratorENS1_19VectorConstIteratorEDpOT_
FNDA:1,_ZN3s216vectorIiE6assignIN9__gnu_cxx17__normal_iteratorIPiSt6vectorIiSaIiEEEEEEvT_SA_
FNF:2
FNH:2
DA:21,1
DA:23,1
DA:24,2
DA:39,1
DA:40,1
DA:41,4
DA:42,3
DA:44,1
LF:8
LH:8
end_of_record
TN:
SF:/root/project/containers/vector/s21_vector_insert_many.tpp
FN:22,40,_ZN3s216vectorIiE11insert_manyIJiiiEEENS1_14VectorIteratorENS1_19VectorConstIteratorEDpOT_
FN:54,62,_ZN3s216vectorIiE16insert_many_backIJiiiEEEvDpOT_
FNDA:1,_ZN3s216vectorIiE11insert_manyIJiiiEEENS1_14VectorIteratorENS1_19VectorConstIteratorEDpOT_
FNDA:1,_ZN3s216vectorIiE16insert_many_backIJiiiEEEvDpOT_
FNF:2
FNH:2
DA:22,1
DA:24,1
DA:25,1
DA:27,1
DA:28,1
DA:31,4
DA:32,3
DA:35,1
DA:36,1
DA:38,1
DA:39,1
DA:54,1
DA:55,1
DA:57,1
DA:58,1
DA:61,1
DA:62,1
LF:17
LH:17
end_of_record
TN:
SF:/root/project/containers/vector/s21_vector_iterators.tpp
FN:110,112,_ZNK3s216vectorIiE14VectorIteratoreqERKS2_
FN:121,123,_ZNK3s216vectorISt4pairINS_3mapIicE11MapIteratorEbEE14VectorIteratorneERKS7_
FN:121,123,_ZNK3s216vectorISt4pairINS_8multisetIiE8IteratorEbEE14VectorIteratorneERKS7_
FN:121,123,_ZNK3s216vectorIiE14VectorIteratorneERKS2_
FN:132,134,_ZN3s216vectorIiE14VectorIteratormiERKS2_
FN:15,17,_ZN3s216vectorISt4pairINS_3mapIicE11MapIteratorEbEE14VectorIteratordeEv
FN:15,17,_ZN3s216vectorISt4pairINS_8multisetIiE8IteratorEbEE14VectorIteratordeEv
FN:15,17,_ZN3s216vectorIiE14VectorIteratordeEv
FN:155,157,_ZN3s216vectorISt4pairINS_3mapIicE11MapIteratorEbEE5beginEv
FN:155,157,_ZN3s216vectorISt4pairINS_8multisetIiE8IteratorEbEE5beginEv
FN:155,157,_ZN3s216vectorIiE5beginEv
FN:166,168,_ZNK3s216vectorIiE5beginEv
FN:177,179,_ZN3s216vectorISt4pairINS_3mapIicE11MapIteratorEbEE3endEv
FN:177,179,_ZN3s216vectorISt4pairINS_8multisetIiE8IteratorEbEE3endEv
FN:177,179,_ZN3s216vectorIiE3endEv
FN:188,190,_ZNK3s216vectorIiE3endEv
FN:199,201,_ZNK3s216vectorIiE6cbeginEv
FN:210,212,_ZNK3s216vectorIiE4cendEv
FN:220,220,_ZN3s216vectorISt4pairINS_3mapIicE11MapIteratorEbEE14VectorIteratorC2EPS5_
FN:220,220,_ZN3s216vectorISt4pairINS_8multisetIiE8IteratorEbEE14VectorIteratorC2EPS5_
FN:220,220,_ZN3s216vectorIiE14VectorIteratorC2EPi
FN:27,30,_ZN3s216vectorISt4pairINS_3mapIicE11MapIteratorEbEE14VectorIteratorppEv
FN:27,30,_ZN3s216vectorISt4pairINS_8multisetIiE8IteratorEbEE14VectorIteratorppEv
FN:27,30,_ZN3s216vectorIiE14VectorIteratorppEv
FN:86,88,_ZN3s216vectorIiE14VectorIteratorplEi
FNDA:3,_ZNK3s216vectorIiE14VectorIteratoreqERKS2_
FNDA:4,_ZNK3s216vectorISt4pairINS_3mapIicE11MapIteratorEbEE14VectorIteratorneERKS7_
FNDA:6,_ZNK3s216vectorISt4pairINS_8multisetIiE8IteratorEbEE14VectorIteratorneERKS7_
FNDA:1,_ZNK3s216vectorIiE14VectorIteratorneERKS2_
FNDA:3,_ZN3s216vectorIiE14VectorIteratormiERKS2_
FNDA:3,_ZN3s216vectorISt4pairINS_3mapIicE11MapIteratorEbEE14VectorIteratordeEv
FNDA:5,_ZN3s216vectorISt4pairINS_8multisetIiE8IteratorEbEE14VectorIteratordeEv
FNDA:10,_ZN3s216vectorIiE14VectorIteratordeEv
FNDA:1,_ZN3s216vectorISt4pairINS_3mapIicE11MapIteratorEbEE5beginEv
FNDA:1,_ZN3s216vectorISt4pairINS_8multisetIiE8IteratorEbEE5beginEv
FNDA:14,_ZN3s216vectorIiE5beginEv
FNDA:6,_ZNK3s216vectorIiE5beginEv
FNDA:1,_ZN3s216vectorISt4pairINS_3mapIicE11MapIteratorEbEE3endEv
FNDA:1,_ZN3s216vectorISt4pairINS_8multisetIiE8IteratorEbEE3endEv
FNDA:3,_ZN3s216vectorIiE3endEv
FNDA:6,_ZNK3s216vectorIiE3endEv
FNDA:2,_ZNK3s216vectorIiE6cbeginEv
FNDA:1,_ZNK3s216vectorIiE4cendEv
FNDA:2,_ZN3s216vectorISt4pairINS_3mapIicE11MapIteratorEbEE14VectorIteratorC2EPS5_
FNDA:2,_ZN3s216vectorISt4pairINS_8multisetIiE8IteratorEbEE14VectorIteratorC2EPS5_
FNDA:25,_ZN3s216vectorIiE14VectorIteratorC2EPi
FNDA:3,_ZN3s216vectorISt4pairINS_3mapIicE11MapIteratorEbEE14VectorIteratorppEv
FNDA:5,_ZN3s216vectorISt4pairINS_8multisetIiE8IteratorEbEE14VectorIteratorppEv
FNDA:7,_ZN3s216vectorIiE14VectorIteratorppEv
FNDA:4,_ZN3s216vectorIiE14VectorIteratorplEi
FNF:25
FNH:25
DA:15,18
DA:16,18
DA:27,15
DA:28,15
DA:29,15
DA:86,4
DA:87,4
DA:110,3
DA:111,3
DA:121,11
DA:122,11
DA:132,3
DA:133,3
DA:155,16
DA:156,16
DA:166,6
DA:167,6
DA:177,5
DA:178,5
DA:188,6
DA:189,6
DA:199,2
DA:200,2
DA:210,1
DA:211,1
DA:220,29
LF:26
LH:26
end_of_record
TN:
SF:/root/project/containers/vector/s21_vector_operations.tpp
FN:107,115,_ZN3s216vectorISt4pairINS_3mapIicE11MapIteratorEbEE7reserveEm
FN:107,115,_ZN3s216vectorISt4pairINS_6RBTreeIiiE11SetIteratorEbEE7reserveEm
FN:107,115,_ZN3s216vectorISt4pairINS_8multisetIiE8IteratorEbEE7reserveEm
FN:107,115,_ZN3s216vectorIZN25StackTest_CustomType_Test8TestBodyEvE10TestStructE7reserveEm
FN:107,115,_ZN3s216vectorIiE7reserveEm
FN:123,125,_ZNK3s216vectorIiE8capacityEv
FN:133,141,_ZN3s216vectorIiE13shrink_to_fitEv
FN:148,151,_ZN3s216vectorIiE5clearEv
FN:162,179,_ZN3s216vectorIiE6insertENS1_14VectorIteratorERKi
FN:17,22,_ZN3s216vectorIiE2atEm
FN:188,201,_ZN3s216vectorIiE5eraseENS1_14VectorIteratorE
FN:210,217,_ZN3s216vectorISt4pairINS_3mapIicE11MapIteratorEbEE9push_backERKS5_
FN:210,217,_ZN3s216vectorISt4pairINS_6RBTreeIiiE11SetIteratorEbEE9push_backERKS5_
FN:210,217,_ZN3s216vectorISt4pairINS_8multisetIiE8IteratorEbEE9push_backERKS5_
FN:210,217,_ZN3s216vectorIZN25StackTest_CustomType_Test8TestBodyEvE10TestStructE9push_backERKS2_
FN:210,217,_ZN3s216vectorIiE9push_backERKi
FN:225,229,_ZN3s216vectorIiE8pop_backEv
FN:237,241,_ZN3s216vectorIiE4swapERS1_
FN:250,253,_ZNK3s216vectorIiEeqERKS1_
FN:32,34,_ZN3s216vectorISt4pairINS_3mapIicE11MapIteratorEbEEixEm
FN:32,34,_ZN3s216vectorISt4pairINS_6RBTreeIiiE11SetIteratorEbEEixEm
FN:32,34,_ZN3s216vectorISt4pairINS_8multisetIiE8IteratorEbEEixEm
FN:32,34,_ZN3s216vectorIiEixEm
FN:43,46,_ZN3s216vectorIiE5frontEv
FN:55,58,_ZNK3s216vectorIZN25StackTest_CustomType_Test8TestBodyEvE10TestStructE4backEv
FN:55,58,_ZNK3s216vectorIiE4backEv
FN:66,68,_ZNK3s216vectorIiE4dataEv
FN:76,78,_ZNK3s216vectorIZN25StackTest_CustomType_Test8TestBodyEvE10TestStructE5emptyEv
FN:76,78,_ZNK3s216vectorIiE5emptyEv
FN:86,88,_ZNK3s216vectorISt4pairINS_3mapIicE11MapIteratorEbEE4sizeEv
FN:86,88,_ZNK3s216vectorISt4pairINS_6RBTreeIiiE11SetIteratorEbEE4sizeEv
FN:86,88,_ZNK3s216vectorISt4pairINS_8multisetIiE8IteratorEbEE4sizeEv
FN:86,88,_ZNK3s216vectorIZN25StackTest_CustomType_Test8TestBodyEvE10TestStructE4sizeEv
FN:86,88,_ZNK3s216vectorIiE4sizeEv
FN:96,98,_ZNK3s216vectorIiE8max_sizeEv
FNDA:4,_ZN3s216vectorISt4pairINS_3mapIicE11MapIteratorEbEE7reserveEm
FNDA:3,_ZN3s216vectorISt4pairINS_6RBTreeIiiE11SetIteratorEbEE7reserveEm
FNDA:9,_ZN3s216vectorISt4pairINS_8multisetIiE8IteratorEbEE7reserveEm
FNDA:1,_ZN3s216vectorIZN25StackTest_CustomType_Test8TestBodyEvE10TestStructE7reserveEm
FNDA:40,_ZN3s216vectorIiE7reserveEm
FNDA:2,_ZNK3s216vectorIiE8capacityEv
FNDA:1,_ZN3s216vectorIiE13shrink_to_fitEv
FNDA:4,_ZN3s216vectorIiE5clearEv
FNDA:2,_ZN3s216vectorIiE6insertENS1_14VectorIteratorERKi
FNDA:3,_ZN3s216vectorIiE2atEm
FNDA:1,_ZN3s216vectorIiE5eraseENS1_14VectorIteratorE
FNDA:6,_ZN3s216vectorISt4pairINS_3mapIicE11MapIteratorEbEE9push_backERKS5_
FNDA:7,_ZN3s216vectorISt4pairINS_6RBTreeIiiE11SetIteratorEbEE9push_backERKS5_
FNDA:18,_ZN3s216vectorISt4pairINS_8multisetIiE8IteratorEbEE9push_backERKS5_
FNDA:2,_ZN3s216vectorIZN25StackTest_CustomType_Test8TestBodyEvE10TestStructE9push_backERKS2_
FNDA:1000029,_ZN3s216vectorIiE9push_backERKi
FNDA:16,_ZN3s216vectorIiE8pop_backEv
FNDA:3,_ZN3s216vectorIiE4swapERS1_
FNDA:2,_ZNK3s216vectorIiEeqERKS1_
FNDA:3,_ZN3s216vectorISt4pairINS_3mapIicE11MapIteratorEbEEixEm
FNDA:7,_ZN3s216vectorISt4pairINS_6RBTreeIiiE11SetIteratorEbEEixEm
FNDA:6,_ZN3s216vectorISt4pairINS_8multisetIiE8IteratorEbEEixEm
FNDA:45,_ZN3s216vectorIiEixEm
FNDA:3,_ZN3s216vectorIiE5frontEv
FNDA:1,_ZNK3s216vectorIZN25StackTest_CustomType_Test8TestBodyEvE10TestStructE4backEv
FNDA:31,_ZNK3s216vectorIiE4backEv
FNDA:1,_ZNK3s216vectorIiE4dataEv
FNDA:1,_ZNK3s216vectorIZN25StackTest_CustomType_Test8TestBodyEvE10TestStructE5emptyEv
FNDA:75,_ZNK3s216vectorIiE5emptyEv
FNDA:3,_ZNK3s216vectorISt4pairINS_3mapIicE11MapIteratorEbEE4sizeEv
FNDA:3,_ZNK3s216vectorISt4pairINS_6RBTreeIiiE11SetIteratorEbEE4sizeEv
FNDA:2,_ZNK3s216vectorISt4pairINS_8multisetIiE8IteratorEbEE4sizeEv
FNDA:1,_ZNK3s216vectorIZN25StackTest_CustomType_Test8TestBodyEvE10TestStructE4sizeEv
FNDA:59,_ZNK3s216vectorIiE4sizeEv
FNDA:1,_ZNK3s216vectorIiE8max_sizeEv
FNF:35
FNH:35
DA:17,3
DA:18,3
DA:19,2
DA:21,1
DA:32,61
DA:33,61
DA:43,3
DA:44,3
DA:45,0
DA:55,32
DA:56,32
DA:57,0
DA:66,1
DA:67,1
DA:76,76
DA:77,76
DA:86,68
DA:87,68
DA:96,1
DA:97,1
DA:107,57
DA:108,57
DA:109,119
DA:110,57
DA:111,57
DA:112,57
DA:113,57
DA:115,57
DA:123,2
DA:124,2
DA:133,1
DA:134,1
DA:135,1
DA:136,1
DA:137,1
DA:138,1
DA:139,1
DA:141,1
DA:148,4
DA:149,20
DA:150,4
DA:151,4
DA:162,2
DA:164,2
DA:165,2
DA:166,0
DA:167,2
DA:168,2
DA:170,7
DA:171,5
DA:174,2
DA:176,2
DA:178,2
DA:188,1
DA:189,1
DA:191,1
DA:192,0
DA:194,1
DA:195,4
DA:196,3
DA:197,3
DA:200,1
DA:201,1
DA:210,1000062
DA:211,1000062
DA:212,51
DA:215,1000062
DA:216,1000062
DA:217,1000062
DA:225,16
DA:226,16
DA:227,15
DA:228,15
DA:229,15
DA:237,3
DA:238,3
DA:239,3
DA:240,3
DA:241,3
DA:250,2
DA:251,4
DA:252,4
LF:82
LH:78
end_of_record
TN:
SF:/root/project/containers/vector/s21_vector_utilities.tpp
FN:100,104,_ZN3s214swapIPiEEvRT_S3_
FN:100,104,_ZN3s214swapImEEvRT_S2_
FN:19,25,_ZN3s214copyIPKiPiEEvT_S4_T0_
FN:19,25,_ZN3s214copyIPiS1_EEvT_S2_T0_
FN:38,44,_ZN3s214moveIPSt4pairINS_3mapIicE11MapIteratorEbES6_EEvT_S7_T0_
FN:38,44,_ZN3s214moveIPSt4pairINS_6RBTreeIiiE11SetIteratorEbES6_EEvT_S7_T0_
FN:38,44,_ZN3s214moveIPSt4pairINS_8multisetIiE8IteratorEbES6_EEvT_S7_T0_
FN:38,44,_ZN3s214moveIPZN25StackTest_CustomType_Test8TestBodyEvE10TestStructS3_EEvT_S4_T0_
FN:38,44,_ZN3s214moveIPiS1_EEvT_S2_T0_
FN:57,61,_ZN3s214fillIPiiEEvT_S2_RKT0_
FN:87,89,_ZN3s213maxImEERKT_S3_S3_
FNDA:3,_ZN3s214swapIPiEEvRT_S3_
FNDA:6,_ZN3s214swapImEEvRT_S2_
FNDA:144,_ZN3s214copyIPKiPiEEvT_S4_T0_
FNDA:5,_ZN3s214copyIPiS1_EEvT_S2_T0_
FNDA:4,_ZN3s214moveIPSt4pairINS_3mapIicE11MapIteratorEbES6_EEvT_S7_T0_
FNDA:3,_ZN3s214moveIPSt4pairINS_6RBTreeIiiE11SetIteratorEbES6_EEvT_S7_T0_
FNDA:9,_ZN3s214moveIPSt4pairINS_8multisetIiE8IteratorEbES6_EEvT_S7_T0_
FNDA:1,_ZN3s214moveIPZN25StackTest_CustomType_Test8TestBodyEvE10TestStructS3_EEvT_S4_T0_
FNDA:41,_ZN3s214moveIPiS1_EEvT_S2_T0_
FNDA:1,_ZN3s214fillIPiiEEvT_S2_RKT0_
FNDA:2,_ZN3s213maxImEERKT_S3_S3_
FNF:11
FNH:11
DA:19,149
DA:20,694
DA:21,545
DA:22,545
DA:23,545
DA:25,149
DA:38,58
DA:39,1048736
DA:40,1048678
DA:41,1048678
DA:42,1048678
DA:44,58
DA:57,1
DA:58,6
DA:59,5
DA:61,1
DA:87,2
DA:88,2
DA:100,9
DA:101,9
DA:102,9
DA:103,9
DA:104,9
LF:23
LH:23
end_of_record
TN:
SF:/root/project/containersplus/array/s21_array.h
FN:83,83,_ZN3s215arrayINSt7__cxx1112basic_stringIcSt11char_traitsIcESaIcEEELm3EED2Ev
FNDA:1,_ZN3s215arrayINSt7__cxx1112basic_stringIcSt11char_traitsIcESaIcEEELm3EED2Ev
FNF:1
FNH:1
DA:83,4
LF:1
LH:1
end_of_record
TN:
SF:/root/project/containersplus/array/s21_array_access.tpp
FN:103,105,_ZNK3s215arrayIiLm5EE4dataEv
FN:19,24,_ZN3s215arrayIiLm3EE2atEm
FN:19,24,_ZN3s215arrayIiLm5EE2atEm
FN:36,39,_ZNK3s215arrayINSt7__cxx1112basic_stringIcSt11char_traitsIcESaIcEEELm3EEixEm
FN:36,39,_ZNK3s215arrayIiLm1EEixEm
FN:36,39,_ZNK3s215arrayIiLm5EEixEm
FN:49,51,_ZNK3s215arrayIiLm1EE5frontEv
FN:49,51,_ZNK3s215arrayIiLm5EE5frontEv
FN:61,63,_ZNK3s215arrayIiLm1EE4backEv
FN:61,63,_ZNK3s215arrayIiLm5EE4backEv
FN:73,75,_ZN3s215arrayIiLm5EE4dataEv
FN:88,93,_ZNK3s215arrayIiLm5EE2atEm
FNDA:1,_ZNK3s215arrayIiLm5EE4dataEv
FNDA:1,_ZN3s215arrayIiLm3EE2atEm
FNDA:3,_ZN3s215arrayIiLm5EE2atEm
FNDA:3,_ZNK3s215arrayINSt7__cxx1112basic_stringIcSt11char_traitsIcESaIcEEELm3EEixEm
FNDA:2,_ZNK3s215arrayIiLm1EEixEm
FNDA:26,_ZNK3s215arrayIiLm5EEixEm
FNDA:1,_ZNK3s215arrayIiLm1EE5frontEv
FNDA:2,_ZNK3s215arrayIiLm5EE5frontEv
FNDA:1,_ZNK3s215arrayIiLm1EE4backEv
FNDA:2,_ZNK3s215arrayIiLm5EE4backEv
FNDA:1,_ZN3s215arrayIiLm5EE4dataEv
FNDA:1,_ZNK3s215arrayIiLm5EE2atEm
FNF:12
FNH:12
DA:19,4
DA:20,4
DA:21,2
DA:23,2
DA:36,31
DA:38,31
DA:49,3
DA:50,3
DA:61,3
DA:62,3
DA:73,1
DA:74,1
DA:88,1
DA:89,1
DA:90,0
DA:92,1
DA:103,1
DA:104,1
LF:18
LH:17
end_of_record
TN:
SF:/root/project/containersplus/array/s21_array_capacity.tpp
FN:16,18,_ZNK3s215arrayIiLm0EE5emptyEv
FN:16,18,_ZNK3s215arrayIiLm5EE5emptyEv
FN:28,30,_ZNK3s215arrayIiLm0EE4sizeEv
FN:28,30,_ZNK3s215arrayIiLm1EE4sizeEv
FN:28,30,_ZNK3s215arrayIiLm5EE4sizeEv
FN:41,43,_ZNK3s215arrayIiLm0EE8max_sizeEv
FN:41,43,_ZNK3s215arrayIiLm5EE8max_sizeEv
FNDA:5,_ZNK3s215arrayIiLm0EE5emptyEv
FNDA:2,_ZNK3s215arrayIiLm5EE5emptyEv
FNDA:2,_ZNK3s215arrayIiLm0EE4sizeEv
FNDA:1,_ZNK3s215arrayIiLm1EE4sizeEv
FNDA:2,_ZNK3s215arrayIiLm5EE4sizeEv
FNDA:1,_ZNK3s215arrayIiLm0EE8max_sizeEv
FNDA:1,_ZNK3s215arrayIiLm5EE8max_sizeEv
FNF:7
FNH:7
DA:16,7
DA:17,7
DA:28,5
DA:29,5
DA:41,2
DA:42,2
LF:6
LH:6
end_of_record
TN:
SF:/root/project/containersplus/array/s21_array_constructors.tpp
FN:19,32,_ZN3s215arrayINSt7__cxx1112basic_stringIcSt11char_traitsIcESaIcEEELm3EEC2ERKSt16initializer_listIS6_E
FN:19,32,_ZN3s215arrayIiLm1EEC2ERKSt16initializer_listIiE
FN:19,32,_ZN3s215arrayIiLm3EEC2ERKSt16initializer_listIiE
FN:19,32,_ZN3s215arrayIiLm5EEC2ERKSt16initializer_listIiE
FN:42,46,_ZN3s215arrayIiLm5EEC2ERKS1_
FN:56,60,_ZN3s215arrayIiLm5EEC2EOS1_
FN:71,78,_ZN3s215arrayIiLm3EEaSEOS1_
FN:71,78,_ZN3s215arrayIiLm5EEaSEOS1_
FNDA:1,_ZN3s215arrayINSt7__cxx1112basic_stringIcSt11char_traitsIcESaIcEEELm3EEC2ERKSt16initializer_listIS6_E
FNDA:3,_ZN3s215arrayIiLm1EEC2ERKSt16initializer_listIiE
FNDA:28,_ZN3s215arrayIiLm3EEC2ERKSt16initializer_listIiE
FNDA:29,_ZN3s215arrayIiLm5EEC2ERKSt16initializer_listIiE
FNDA:3,_ZN3s215arrayIiLm5EEC2ERKS1_
FNDA:1,_ZN3s215arrayIiLm5EEC2EOS1_
FNDA:27,_ZN3s215arrayIiLm3EEaSEOS1_
FNDA:28,_ZN3s215arrayIiLm5EEaSEOS1_
FNF:8
FNH:8
DA:19,64
DA:20,61
DA:21,1
DA:24,60
DA:25,292
DA:26,232
DA:29,60
DA:30,0
DA:32,60
DA:42,3
DA:43,18
DA:44,15
DA:46,3
DA:56,1
DA:57,6
DA:58,5
DA:60,1
DA:71,55
DA:72,55
DA:73,276
DA:74,221
DA:77,55
LF:22
LH:21
end_of_record
TN:
SF:/root/project/containersplus/array/s21_array_iterators.tpp
FN:16,18,_ZN3s215arrayIiLm0EE5beginEv
FN:16,18,_ZN3s215arrayIiLm1EE5beginEv
FN:16,18,_ZN3s215arrayIiLm5EE5beginEv
FN:29,31,_ZN3s215arrayIiLm0EE3endEv
FN:29,31,_ZN3s215arrayIiLm1EE3endEv
FN:29,31,_ZN3s215arrayIiLm5EE3endEv
FN:41,43,_ZNK3s215arrayIiLm5EE5beginEv
FN:54,56,_ZNK3s215arrayIiLm5EE3endEv
FNDA:1,_ZN3s215arrayIiLm0EE5beginEv
FNDA:1,_ZN3s215arrayIiLm1EE5beginEv
FNDA:1,_ZN3s215arrayIiLm5EE5beginEv
FNDA:1,_ZN3s215arrayIiLm0EE3endEv
FNDA:1,_ZN3s215arrayIiLm1EE3endEv
FNDA:6,_ZN3s215arrayIiLm5EE3endEv
FNDA:2,_ZNK3s215arrayIiLm5EE5beginEv
FNDA:12,_ZNK3s215arrayIiLm5EE3endEv
FNF:8
FNH:8
DA:16,3
DA:17,3
DA:29,8
DA:30,8
DA:41,2
DA:42,2
DA:54,12
DA:55,12
LF:8
LH:8
end_of_record
TN:
SF:/root/project/containersplus/array/s21_array_modifiers.tpp
FN:17,23,_ZN3s215arrayIiLm0EE4swapERS1_
FN:17,23,_ZN3s215arrayIiLm5EE4swapERS1_
FN:33,37,_ZN3s215arrayIiLm0EE4fillERKi
FN:33,37,_ZN3s215arrayIiLm1EE4fillERKi
FN:33,37,_ZN3s215arrayIiLm5EE4fillERKi
FNDA:2,_ZN3s215arrayIiLm0EE4swapERS1_
FNDA:3,_ZN3s215arrayIiLm5EE4swapERS1_
FNDA:1,_ZN3s215arrayIiLm0EE4fillERKi
FNDA:1,_ZN3s215arrayIiLm1EE4fillERKi
FNDA:1,_ZN3s215arrayIiLm5EE4fillERKi
FNF:5
FNH:5
DA:17,5
DA:18,20
DA:19,15
DA:20,15
DA:21,15
DA:23,5
DA:33,3
DA:34,9
DA:35,6
DA:37,3
LF:10
LH:10
end_of_record
TN:
SF:/root/project/containersplus/multiset/s21_multiset.h
FN:295,295,_ZN3s218multisetIiE8IteratorC2Ev
FN:79,79,_ZN3s218multisetIiED2Ev
FNDA:45,_ZN3s218multisetIiE8IteratorC2Ev
FNDA:243,_ZN3s218multisetIiED2Ev
FNF:2
FNH:2
DA:79,243
DA:295,45
LF:2
LH:2
end_of_record
TN:
SF:/root/project/containersplus/multiset/s21_multiset_access.tpp
FN:130,132,_ZNK3s218multisetIiE5emptyEv
FN:141,143,_ZNK3s218multisetIiE4sizeEv
FN:152,154,_ZNK3s218multisetIiE8max_sizeEv
FN:17,22,_ZNK3s218multisetIiE5countERKi
FN:33,38,_ZN3s218multisetIiE4findERKi
FN:49,51,_ZNK3s218multisetIiE8containsERKi
FN:63,67,_ZN3s218multisetIiE11equal_rangeERKi
FN:78,84,_ZN3s218multisetIiE11lower_boundERKi
FN:95,101,_ZN3s218multisetIiE11upper_boundERKi
FNDA:250,_ZNK3s218multisetIiE5emptyEv
FNDA:18,_ZNK3s218multisetIiE4sizeEv
FNDA:1,_ZNK3s218multisetIiE8max_sizeEv
FNDA:13,_ZNK3s218multisetIiE5countERKi
FNDA:3,_ZN3s218multisetIiE4findERKi
FNDA:15,_ZNK3s218multisetIiE8containsERKi
FNDA:2,_ZN3s218multisetIiE11equal_rangeERKi
FNDA:5,_ZN3s218multisetIiE11lower_boundERKi
FNDA:5,_ZN3s218multisetIiE11upper_boundERKi
FNF:9
FNH:9
DA:17,13
DA:19,13
DA:20,13
DA:21,13
DA:33,3
DA:34,3
DA:35,6
DA:36,3
DA:37,6
DA:49,15
DA:50,15
DA:63,2
DA:64,2
DA:65,2
DA:66,4
DA:78,5
DA:79,5
DA:80,14
DA:81,9
DA:83,5
DA:95,5
DA:96,5
DA:97,30
DA:98,25
DA:100,5
DA:130,250
DA:131,250
DA:141,18
DA:142,18
DA:152,1
DA:153,1
LF:31
LH:31
end_of_record
TN:
SF:/root/project/containersplus/multiset/s21_multiset_constructors.tpp
FN:16,16,_ZN3s218multisetIiEC2Ev
FN:27,28,_ZN3s218multisetIiEC2ERKS1_
FN:39,42,_ZN3s218multisetIiEC2EOS1_
FN:53,58,_ZN3s218multisetIiEC2ERKSt16initializer_listIiE
FN:70,76,_ZN3s218multisetIiEaSERKS1_
FN:88,95,_ZN3s218multisetIiEaSEOS1_
FNDA:240,_ZN3s218multisetIiEC2Ev
FNDA:2,_ZN3s218multisetIiEC2ERKS1_
FNDA:1,_ZN3s218multisetIiEC2EOS1_
FNDA:90,_ZN3s218multisetIiEC2ERKSt16initializer_listIiE
FNDA:1,_ZN3s218multisetIiEaSERKS1_
FNDA:88,_ZN3s218multisetIiEaSEOS1_
FNF:6
FNH:6
DA:16,240
DA:27,2
DA:28,2
DA:39,1
DA:40,1
DA:41,1
DA:42,1
DA:53,90
DA:54,90
DA:55,650
DA:56,560
DA:58,90
DA:70,1
DA:71,1
DA:72,1
DA:73,1
DA:75,1
DA:88,88
DA:89,88
DA:90,88
DA:91,88
DA:92,88
DA:94,88
LF:23
LH:23
end_of_record
TN:
SF:/root/project/containersplus/multiset/s21_multiset_insert_many.tpp
FN:24,29,_ZN3s218multisetIiE11insert_manyIJiiiiiEEENS_6vectorISt4pairINS1_8IteratorEbEEEDpOT_
FN:24,29,_ZN3s218multisetIiE11insert_manyIJiiiiiiEEENS_6vectorISt4pairINS1_8IteratorEbEEEDpOT_
FN:24,29,_ZN3s218multisetIiE11insert_manyIJiiiiiiiEEENS_6vectorISt4pairINS1_8IteratorEbEEEDpOT_
FNDA:1,_ZN3s218multisetIiE11insert_manyIJiiiiiEEENS_6vectorISt4pairINS1_8IteratorEbEEEDpOT_
FNDA:1,_ZN3s218multisetIiE11insert_manyIJiiiiiiEEENS_6vectorISt4pairINS1_8IteratorEbEEEDpOT_
FNDA:1,_ZN3s218multisetIiE11insert_manyIJiiiiiiiEEENS_6vectorISt4pairINS1_8IteratorEbEEEDpOT_
FNF:3
FNH:3
DA:24,3
DA:25,3
DA:26,3
DA:28,3
DA:29,0
LF:5
LH:4
end_of_record
TN:
SF:/root/project/containersplus/multiset/s21_multiset_iterators.tpp
FN:145,149,_ZN3s218multisetIiE8IteratorppEi
FN:17,19,_ZN3s218multisetIiE5beginEv
FN:176,178,_ZNK3s218multisetIiE8IteratoreqERKS2_
FN:189,191,_ZNK3s218multisetIiE8IteratorneERKS2_
FN:201,209,_ZN3s218multisetIiE13ConstIteratorppEv
FN:268,270,_ZNK3s218multisetIiE13ConstIteratoreqERKS2_
FN:281,283,_ZNK3s218multisetIiE13ConstIteratorneERKS2_
FN:29,31,_ZN3s218multisetIiE3endEv
FN:303,304,_ZN3s218multisetIiE8IteratorC2ENS_6RBTreeIimE8IteratorEm
FN:313,315,_ZN3s218multisetIiE8IteratordeEv
FN:325,327,_ZN3s218multisetIiE13ConstIteratorC2ENS_3mapIimE16ConstMapIteratorEm
FN:338,340,_ZNK3s218multisetIiE13ConstIteratordeEv
FN:65,67,_ZNK3s218multisetIiE5beginEv
FN:77,79,_ZNK3s218multisetIiE3endEv
FN:92,102,_ZN3s218multisetIiE8IteratorppEv
FNDA:3,_ZN3s218multisetIiE8IteratorppEi
FNDA:17,_ZN3s218multisetIiE5beginEv
FNDA:93,_ZNK3s218multisetIiE8IteratoreqERKS2_
FNDA:92,_ZNK3s218multisetIiE8IteratorneERKS2_
FNDA:5,_ZN3s218multisetIiE13ConstIteratorppEv
FNDA:6,_ZNK3s218multisetIiE13ConstIteratoreqERKS2_
FNDA:6,_ZNK3s218multisetIiE13ConstIteratorneERKS2_
FNDA:70,_ZN3s218multisetIiE3endEv
FNDA:39672,_ZN3s218multisetIiE8IteratorC2ENS_6RBTreeIimE8IteratorEm
FNDA:93,_ZN3s218multisetIiE8IteratordeEv
FNDA:7,_ZN3s218multisetIiE13ConstIteratorC2ENS_3mapIimE16ConstMapIteratorEm
FNDA:5,_ZNK3s218multisetIiE13ConstIteratordeEv
FNDA:1,_ZNK3s218multisetIiE5beginEv
FNDA:6,_ZNK3s218multisetIiE3endEv
FNDA:72,_ZN3s218multisetIiE8IteratorppEv
FNF:15
FNH:15
DA:17,17
DA:18,17
DA:29,70
DA:30,70
DA:65,1
DA:66,1
DA:77,6
DA:78,6
DA:92,72
DA:93,72
DA:95,72
DA:96,26
DA:98,46
DA:99,46
DA:101,72
DA:145,3
DA:146,3
DA:147,3
DA:148,3
DA:176,93
DA:177,93
DA:189,92
DA:190,92
DA:201,5
DA:202,5
DA:203,0
DA:205,5
DA:206,5
DA:208,5
DA:268,6
DA:269,6
DA:281,6
DA:282,6
DA:303,39672
DA:304,39672
DA:313,93
DA:314,93
DA:325,7
DA:327,7
DA:338,5
DA:339,5
LF:41
LH:40
end_of_record
TN:
SF:/root/project/containersplus/multiset/s21_multiset_modifiers.tpp
FN:112,118,_ZN3s218multisetIiE5mergeERS1_
FN:18,28,_ZN3s218multisetIiE5eraseENS1_8IteratorE
FN:37,40,_ZN3s218multisetIiE4swapERS1_
FN:48,53,_ZN3s218multisetIiE5clearEv
FN:67,77,_ZN3s218multisetIiE6insertERKi
FNDA:1,_ZN3s218multisetIiE5mergeERS1_
FNDA:3,_ZN3s218multisetIiE5eraseENS1_8IteratorE
FNDA:1,_ZN3s218multisetIiE4swapERS1_
FNDA:245,_ZN3s218multisetIiE5clearEv
FNDA:39582,_ZN3s218multisetIiE6insertERKi
FNF:5
FNH:5
DA:18,3
DA:19,3
DA:21,3
DA:22,2
DA:23,2
DA:25,1
DA:26,1
DA:37,1
DA:38,1
DA:39,1
DA:40,1
DA:48,245
DA:49,245
DA:50,126
DA:51,126
DA:53,245
DA:67,39582
DA:68,39582
DA:69,39582
DA:70,36180
DA:71,36180
DA:72,36180
DA:74,3402
DA:75,3402
DA:76,3402
DA:112,1
DA:113,4
DA:114,3
DA:115,3
DA:117,1
DA:118,1
LF:31
LH:31
end_of_record
